(dp0
S'.\\mappe\\mappe_da_unire\\betatest.tmx'
p1
(dp2
S'dormi'
p3
I00
sS'matr_layer_raccolto'
p4
(lp5
(lp6
I0
aI0
aI0
aI0
aI0
aI0
aI0
aI0
aI0
aI0
aI0
aI0
aI0
aI0
aI0
aI0
aI0
aI0
aI0
aI0
aI0
aI0
aI0
aI0
aI0
aI0
aI0
aI0
aI0
aI0
aI0
aI0
aI0
aI0
aI0
aI0
aI0
aI0
aI0
aI0
aI0
aI0
aI0
aI0
aI0
aI0
aI0
aI0
aI0
aI0
aI0
aI0
aI0
aI0
aI0
aI0
aI0
aI0
aI0
aI0
aI0
aI0
aI0
aI0
aI0
aI0
aI0
aI0
aI0
aI0
aI0
aI0
aI0
aI0
aI0
aI0
aI0
aI0
aI0
aI0
aI0
aI0
aI0
aI0
aI0
aI0
aI0
aI0
aI0
aI0
aI0
aI0
aI0
aI0
aI0
aa(lp7
I0
aI0
aI0
aI0
aI0
aI0
aI0
aI0
aI0
aI0
aI0
aI0
aI0
aI0
aI0
aI0
aI0
aI0
aI0
aI0
aI0
aI0
aI0
aI0
aI0
aI0
aI0
aI0
aI0
aI0
aI0
aI0
aI0
aI0
aI0
aI0
aI0
aI0
aI0
aI0
aI0
aI0
aI0
aI0
aI0
aI0
aI0
aI0
aI0
aI0
aI0
aI0
aI0
aI0
aI0
aI0
aI0
aI0
aI0
aI0
aI0
aI0
aI0
aI0
aI0
aI0
aI0
aI0
aI0
aI0
aI0
aI0
aI0
aI0
aI0
aI0
aI0
aI0
aI0
aI0
aI0
aI0
aI0
aI0
aI0
aI0
aI0
aI0
aI0
aI0
aI0
aI0
aI0
aI0
aI0
aa(lp8
I0
aI0
aI0
aI0
aI0
aI0
aI0
aI0
aI0
aI0
aI0
aI0
aI0
aI0
aI0
aI0
aI0
aI0
aI0
aI0
aI0
aI0
aI0
aI0
aI0
aI0
aI0
aI0
aI0
aI0
aI0
aI0
aI0
aI0
aI0
aI0
aI0
aI0
aI0
aI0
aI0
aI0
aI0
aI0
aI0
aI0
aI0
aI0
aI0
aI0
aI0
aI0
aI0
aI0
aI0
aI0
aI0
aI0
aI0
aI0
aI0
aI0
aI0
aI0
aI0
aI0
aI0
aI0
aI0
aI0
aI0
aI0
aI0
aI0
aI0
aI0
aI0
aI0
aI0
aI0
aI0
aI0
aI0
aI0
aI0
aI0
aI0
aI0
aI0
aI0
aI0
aI0
aI0
aI0
aI0
aa(lp9
I0
aI0
aI0
aI0
aI0
aI0
aI0
aI0
aI0
aI0
aI0
aI0
aI0
aI0
aI0
aI0
aI0
aI0
aI0
aI0
aI0
aI0
aI0
aI0
aI0
aI0
aI0
aI0
aI0
aI0
aI0
aI0
aI0
aI0
aI0
aI0
aI0
aI0
aI0
aI0
aI0
aI0
aI0
aI0
aI0
aI0
aI0
aI0
aI0
aI0
aI0
aI0
aI0
aI0
aI0
aI0
aI0
aI0
aI0
aI0
aI0
aI0
aI0
aI0
aI0
aI0
aI0
aI0
aI0
aI0
aI0
aI0
aI0
aI0
aI0
aI0
aI0
aI0
aI0
aI0
aI0
aI0
aI0
aI0
aI0
aI0
aI0
aI0
aI0
aI0
aI0
aI0
aI0
aI0
aI0
aa(lp10
I0
aI0
aI0
aI0
aI0
aI0
aI0
aI0
aI0
aI0
aI0
aI0
aI0
aI0
aI0
aI0
aI0
aI0
aI0
aI0
aI0
aI0
aI0
aI0
aI0
aI0
aI0
aI0
aI0
aI0
aI0
aI0
aI0
aI0
aI0
aI0
aI0
aI0
aI0
aI0
aI0
aI0
aI0
aI0
aI0
aI0
aI0
aI0
aI0
aI0
aI0
aI0
aI0
aI0
aI0
aI0
aI0
aI0
aI0
aI0
aI0
aI0
aI0
aI0
aI0
aI0
aI0
aI0
aI0
aI0
aI0
aI0
aI0
aI0
aI0
aI0
aI0
aI0
aI0
aI0
aI0
aI0
aI0
aI0
aI0
aI0
aI0
aI0
aI0
aI0
aI0
aI0
aI0
aI0
aI0
aa(lp11
I0
aI0
aI0
aI0
aI0
aI0
aI0
aI0
aI0
aI0
aI0
aI0
aI0
aI0
aI0
aI0
aI0
aI0
aI0
aI0
aI0
aI0
aI0
aI0
aI0
aI0
aI0
aI0
aI0
aI0
aI0
aI0
aI0
aI0
aI0
aI0
aI0
aI0
aI0
aI0
aI0
aI0
aI0
aI0
aI0
aI0
aI0
aI0
aI0
aI0
aI0
aI0
aI0
aI0
aI0
aI0
aI0
aI0
aI0
aI0
aI0
aI0
aI0
aI0
aI0
aI0
aI0
aI0
aI0
aI0
aI0
aI0
aI0
aI0
aI0
aI0
aI0
aI0
aI0
aI0
aI0
aI0
aI0
aI0
aI0
aI0
aI0
aI0
aI0
aI0
aI0
aI0
aI0
aI0
aI0
aa(lp12
I0
aI0
aI0
aI0
aI0
aI0
aI0
aI0
aI0
aI0
aI0
aI0
aI0
aI0
aI0
aI0
aI0
aI0
aI0
aI0
aI0
aI0
aI0
aI0
aI0
aI0
aI0
aI0
aI0
aI0
aI0
aI0
aI0
aI0
aI0
aI0
aI0
aI0
aI0
aI0
aI0
aI0
aI0
aI0
aI0
aI0
aI0
aI0
aI0
aI0
aI0
aI0
aI0
aI0
aI0
aI0
aI0
aI0
aI0
aI0
aI0
aI0
aI0
aI0
aI0
aI0
aI0
aI0
aI0
aI0
aI0
aI0
aI0
aI0
aI0
aI0
aI0
aI0
aI0
aI0
aI0
aI0
aI0
aI0
aI0
aI0
aI0
aI0
aI0
aI0
aI0
aI0
aI0
aI0
aI0
aa(lp13
I0
aI0
aI0
aI0
aI0
aI0
aI0
aI0
aI0
aI0
aI0
aI0
aI0
aI0
aI0
aI0
aI0
aI0
aI0
aI0
aI0
aI0
aI0
aI0
aI0
aI0
aI0
aI0
aI0
aI0
aI0
aI0
aI0
aI0
aI0
aI0
aI0
aI0
aI0
aI0
aI0
aI0
aI0
aI0
aI0
aI0
aI0
aI0
aI0
aI0
aI0
aI0
aI0
aI0
aI0
aI0
aI0
aI0
aI0
aI0
aI0
aI0
aI0
aI0
aI0
aI0
aI0
aI0
aI0
aI0
aI0
aI0
aI0
aI0
aI0
aI0
aI0
aI0
aI0
aI0
aI0
aI0
aI0
aI0
aI0
aI0
aI0
aI0
aI0
aI0
aI0
aI0
aI0
aI0
aI0
aa(lp14
I0
aI0
aI0
aI0
aI0
aI0
aI0
aI0
aI0
aI0
aI0
aI0
aI0
aI0
aI0
aI0
aI0
aI0
aI0
aI0
aI0
aI0
aI0
aI0
aI0
aI0
aI0
aI0
aI0
aI0
aI0
aI0
aI0
aI0
aI0
aI0
aI0
aI0
aI0
aI0
aI0
aI0
aI0
aI0
aI0
aI0
aI0
aI0
aI0
aI0
aI0
aI0
aI0
aI0
aI0
aI0
aI0
aI0
aI0
aI0
aI0
aI0
aI0
aI0
aI0
aI0
aI0
aI0
aI0
aI0
aI0
aI0
aI0
aI0
aI0
aI0
aI0
aI0
aI0
aI0
aI0
aI0
aI0
aI0
aI0
aI0
aI0
aI0
aI0
aI0
aI0
aI0
aI0
aI0
aI0
aa(lp15
I0
aI0
aI0
aI0
aI0
aI0
aI0
aI0
aI0
aI0
aI0
aI0
aI0
aI0
aI0
aI0
aI0
aI0
aI0
aI0
aI0
aI0
aI0
aI0
aI0
aI0
aI0
aI0
aI0
aI0
aI0
aI0
aI0
aI0
aI0
aI0
aI0
aI0
aI0
aI0
aI0
aI0
aI0
aI0
aI0
aI0
aI0
aI0
aI0
aI0
aI0
aI0
aI0
aI0
aI0
aI0
aI0
aI0
aI0
aI0
aI0
aI0
aI0
aI0
aI0
aI0
aI0
aI0
aI0
aI0
aI0
aI0
aI0
aI0
aI0
aI0
aI0
aI0
aI0
aI0
aI0
aI0
aI0
aI0
aI0
aI0
aI0
aI0
aI0
aI0
aI0
aI0
aI0
aI0
aI0
aa(lp16
I0
aI0
aI0
aI0
aL585L
aI0
aI0
aI0
aI0
aI0
aI0
aI0
aI0
aI0
aI0
aI0
aI0
aI0
aI0
aI0
aI0
aI0
aI0
aI0
aI0
aI0
aI0
aI0
aI0
aI0
aI0
aI0
aI0
aI0
aI0
aI0
aI0
aI0
aI0
aI0
aI0
aI0
aI0
aI0
aI0
aI0
aI0
aI0
aI0
aI0
aI0
aI0
aI0
aI0
aI0
aI0
aI0
aI0
aI0
aI0
aI0
aI0
aI0
aI0
aI0
aI0
aI0
aI0
aI0
aI0
aI0
aI0
aI0
aI0
aI0
aI0
aI0
aI0
aI0
aI0
aI0
aI0
aI0
aI0
aI0
aI0
aI0
aI0
aI0
aI0
aI0
aI0
aI0
aI0
aI0
aa(lp17
I0
aI0
aI0
aI0
aI0
aI0
aI0
aI0
aI0
aI0
aI0
aI0
aI0
aI0
aI0
aI0
aI0
aI0
aI0
aI0
aI0
aI0
aI0
aI0
aI0
aI0
aI0
aI0
aI0
aI0
aI0
aI0
aI0
aI0
aI0
aI0
aI0
aI0
aI0
aI0
aI0
aI0
aI0
aI0
aI0
aI0
aI0
aI0
aI0
aI0
aI0
aI0
aI0
aI0
aI0
aI0
aI0
aI0
aI0
aI0
aI0
aI0
aI0
aI0
aI0
aI0
aI0
aI0
aI0
aI0
aI0
aI0
aI0
aI0
aI0
aI0
aI0
aI0
aI0
aI0
aI0
aI0
aI0
aI0
aI0
aI0
aI0
aI0
aI0
aI0
aI0
aI0
aI0
aI0
aI0
aa(lp18
I0
aI0
aI0
aI0
aI0
aI0
aI0
aI0
aI0
aI0
aI0
aI0
aI0
aI0
aI0
aI0
aI0
aI0
aI0
aI0
aI0
aI0
aI0
aI0
aI0
aI0
aI0
aI0
aI0
aI0
aI0
aI0
aI0
aI0
aI0
aI0
aI0
aI0
aI0
aI0
aI0
aI0
aI0
aI0
aI0
aI0
aI0
aI0
aI0
aI0
aI0
aI0
aI0
aI0
aI0
aI0
aI0
aI0
aI0
aI0
aI0
aI0
aI0
aI0
aI0
aI0
aI0
aI0
aI0
aI0
aI0
aI0
aI0
aI0
aI0
aI0
aI0
aI0
aI0
aI0
aI0
aI0
aI0
aI0
aI0
aI0
aI0
aI0
aI0
aI0
aI0
aI0
aI0
aI0
aI0
aa(lp19
I0
aI0
aI0
aI0
aI0
aI0
aI0
aI0
aI0
aI0
aI0
aI0
aI0
aI0
aI0
aI0
aI0
aI0
aI0
aI0
aI0
aI0
aI0
aI0
aI0
aI0
aI0
aI0
aI0
aI0
aI0
aI0
aI0
aI0
aI0
aI0
aI0
aI0
aI0
aI0
aI0
aI0
aI0
aI0
aI0
aI0
aI0
aI0
aI0
aI0
aI0
aI0
aI0
aI0
aI0
aI0
aI0
aI0
aI0
aI0
aI0
aI0
aI0
aI0
aI0
aI0
aI0
aI0
aI0
aI0
aI0
aI0
aI0
aI0
aI0
aI0
aI0
aI0
aI0
aI0
aI0
aI0
aI0
aI0
aI0
aI0
aI0
aI0
aI0
aI0
aI0
aI0
aI0
aI0
aI0
aa(lp20
I0
aI0
aI0
aI0
aI0
aI0
aI0
aI0
aI0
aI0
aI0
aI0
aI0
aI0
aI0
aI0
aI0
aI0
aI0
aI0
aI0
aI0
aI0
aI0
aI0
aI0
aI0
aI0
aI0
aI0
aI0
aI0
aI0
aI0
aI0
aI0
aI0
aI0
aI0
aI0
aI0
aI0
aI0
aI0
aI0
aI0
aI0
aI0
aI0
aI0
aI0
aI0
aI0
aI0
aI0
aI0
aI0
aI0
aI0
aI0
aI0
aI0
aI0
aI0
aI0
aI0
aI0
aI0
aI0
aI0
aI0
aI0
aI0
aI0
aI0
aI0
aI0
aI0
aI0
aI0
aI0
aI0
aI0
aI0
aI0
aI0
aI0
aI0
aI0
aI0
aI0
aI0
aI0
aI0
aI0
aa(lp21
I0
aI0
aI0
aI0
aI0
aI0
aI0
aI0
aI0
aI0
aI0
aI0
aI0
aI0
aI0
aI0
aI0
aI0
aI0
aI0
aI0
aI0
aI0
aI0
aI0
aI0
aI0
aI0
aI0
aI0
aI0
aI0
aI0
aI0
aI0
aI0
aI0
aI0
aI0
aI0
aI0
aI0
aI0
aI0
aI0
aI0
aI0
aI0
aI0
aI0
aL582L
aI0
aI0
aI0
aI0
aI0
aI0
aI0
aI0
aI0
aI0
aI0
aI0
aI0
aI0
aI0
aI0
aI0
aI0
aI0
aI0
aI0
aI0
aI0
aI0
aI0
aI0
aI0
aI0
aI0
aI0
aI0
aI0
aI0
aI0
aI0
aI0
aI0
aI0
aI0
aI0
aI0
aI0
aI0
aI0
aa(lp22
I0
aI0
aI0
aI0
aI0
aI0
aI0
aI0
aI0
aI0
aI0
aI0
aI0
aI0
aI0
aI0
aI0
aI0
aI0
aI0
aI0
aI0
aI0
aI0
aI0
aI0
aI0
aI0
aI0
aI0
aI0
aI0
aI0
aI0
aI0
aI0
aI0
aI0
aI0
aI0
aI0
aI0
aI0
aI0
aI0
aI0
aI0
aI0
aI0
aI0
aI0
aI0
aI0
aI0
aI0
aI0
aI0
aI0
aI0
aI0
aI0
aI0
aI0
aI0
aI0
aI0
aI0
aI0
aI0
aI0
aI0
aI0
aI0
aI0
aI0
aI0
aI0
aI0
aI0
aI0
aI0
aI0
aI0
aI0
aI0
aI0
aI0
aI0
aI0
aI0
aI0
aI0
aI0
aI0
aI0
aa(lp23
I0
aI0
aI0
aI0
aI0
aI0
aI0
aI0
aI0
aI0
aI0
aI0
aI0
aI0
aI0
aI0
aI0
aI0
aI0
aI0
aI0
aI0
aI0
aI0
aI0
aI0
aI0
aI0
aI0
aI0
aI0
aI0
aI0
aI0
aI0
aI0
aI0
aI0
aI0
aI0
aI0
aI0
aI0
aI0
aI0
aI0
aI0
aI0
aI0
aI0
aI0
aI0
aI0
aI0
aI0
aI0
aI0
aI0
aI0
aI0
aI0
aI0
aI0
aI0
aI0
aI0
aI0
aI0
aI0
aI0
aI0
aI0
aI0
aI0
aI0
aI0
aI0
aI0
aI0
aI0
aI0
aI0
aI0
aI0
aI0
aI0
aI0
aI0
aI0
aI0
aI0
aI0
aI0
aI0
aI0
aa(lp24
I0
aI0
aI0
aI0
aI0
aI0
aI0
aI0
aI0
aI0
aI0
aI0
aI0
aI0
aI0
aI0
aI0
aI0
aI0
aI0
aI0
aI0
aI0
aI0
aI0
aI0
aI0
aI0
aI0
aI0
aI0
aI0
aI0
aI0
aI0
aI0
aI0
aI0
aI0
aI0
aI0
aI0
aI0
aI0
aI0
aI0
aI0
aI0
aI0
aI0
aI0
aI0
aI0
aI0
aI0
aI0
aI0
aI0
aI0
aI0
aI0
aI0
aI0
aI0
aI0
aI0
aI0
aI0
aI0
aI0
aI0
aI0
aI0
aI0
aI0
aI0
aI0
aI0
aI0
aI0
aI0
aI0
aI0
aI0
aI0
aI0
aI0
aI0
aI0
aI0
aI0
aI0
aI0
aI0
aI0
aa(lp25
I0
aI0
aI0
aI0
aI0
aI0
aI0
aI0
aI0
aI0
aI0
aI0
aI0
aI0
aI0
aI0
aI0
aI0
aI0
aI0
aI0
aI0
aI0
aI0
aI0
aI0
aI0
aI0
aI0
aI0
aI0
aI0
aI0
aI0
aI0
aI0
aI0
aI0
aI0
aI0
aI0
aI0
aI0
aI0
aI0
aI0
aI0
aI0
aI0
aI0
aI0
aI0
aI0
aI0
aI0
aI0
aI0
aI0
aI0
aI0
aI0
aI0
aI0
aI0
aI0
aI0
aI0
aI0
aI0
aI0
aI0
aI0
aI0
aI0
aI0
aI0
aI0
aI0
aI0
aI0
aI0
aI0
aI0
aI0
aI0
aI0
aI0
aI0
aI0
aI0
aI0
aI0
aI0
aI0
aI0
aa(lp26
I0
aI0
aI0
aI0
aI0
aI0
aI0
aI0
aI0
aI0
aI0
aI0
aI0
aI0
aI0
aI0
aI0
aI0
aI0
aI0
aI0
aI0
aI0
aI0
aI0
aI0
aI0
aI0
aI0
aI0
aI0
aI0
aI0
aI0
aI0
aI0
aI0
aI0
aI0
aI0
aI0
aI0
aI0
aI0
aI0
aI0
aI0
aI0
aI0
aI0
aI0
aI0
aI0
aI0
aI0
aI0
aI0
aI0
aI0
aI0
aI0
aI0
aI0
aI0
aI0
aI0
aI0
aI0
aI0
aI0
aI0
aI0
aI0
aI0
aI0
aI0
aI0
aI0
aI0
aI0
aI0
aI0
aI0
aI0
aI0
aI0
aI0
aI0
aI0
aI0
aI0
aI0
aI0
aI0
aI0
aa(lp27
I0
aI0
aI0
aI0
aI0
aI0
aI0
aI0
aI0
aI0
aI0
aI0
aI0
aI0
aI0
aI0
aI0
aI0
aI0
aI0
aI0
aI0
aI0
aI0
aI0
aI0
aI0
aI0
aI0
aI0
aI0
aI0
aI0
aI0
aI0
aI0
aI0
aI0
aI0
aI0
aI0
aI0
aI0
aI0
aI0
aI0
aI0
aI0
aI0
aI0
aI0
aI0
aI0
aI0
aI0
aI0
aI0
aI0
aI0
aI0
aI0
aI0
aI0
aI0
aI0
aI0
aI0
aI0
aI0
aI0
aI0
aI0
aI0
aI0
aI0
aI0
aI0
aI0
aI0
aI0
aI0
aI0
aI0
aI0
aI0
aI0
aI0
aI0
aI0
aI0
aI0
aI0
aI0
aI0
aI0
aa(lp28
I0
aI0
aI0
aI0
aI0
aI0
aI0
aI0
aI0
aI0
aI0
aI0
aI0
aI0
aI0
aI0
aI0
aI0
aI0
aI0
aI0
aI0
aI0
aI0
aI0
aI0
aI0
aI0
aI0
aI0
aI0
aI0
aI0
aI0
aI0
aI0
aI0
aI0
aI0
aI0
aI0
aI0
aI0
aI0
aI0
aI0
aI0
aI0
aI0
aI0
aI0
aI0
aI0
aI0
aI0
aI0
aI0
aI0
aI0
aI0
aI0
aI0
aI0
aI0
aI0
aI0
aI0
aI0
aI0
aI0
aI0
aI0
aI0
aI0
aI0
aI0
aI0
aI0
aI0
aI0
aI0
aI0
aI0
aI0
aI0
aI0
aI0
aI0
aI0
aI0
aI0
aI0
aI0
aI0
aI0
aa(lp29
I0
aI0
aI0
aI0
aI0
aI0
aI0
aI0
aI0
aI0
aI0
aI0
aI0
aI0
aI0
aI0
aI0
aI0
aI0
aI0
aI0
aI0
aI0
aI0
aI0
aI0
aI0
aI0
aI0
aI0
aI0
aI0
aI0
aI0
aI0
aI0
aI0
aI0
aI0
aI0
aI0
aI0
aI0
aI0
aI0
aI0
aI0
aI0
aI0
aI0
aI0
aI0
aI0
aI0
aI0
aI0
aI0
aI0
aI0
aI0
aI0
aI0
aI0
aI0
aI0
aI0
aI0
aI0
aI0
aI0
aI0
aI0
aI0
aI0
aI0
aI0
aI0
aI0
aI0
aI0
aI0
aI0
aI0
aI0
aI0
aI0
aI0
aI0
aI0
aI0
aI0
aI0
aI0
aI0
aI0
aa(lp30
I0
aI0
aI0
aI0
aI0
aI0
aI0
aI0
aI0
aI0
aI0
aI0
aI0
aI0
aI0
aI0
aI0
aI0
aI0
aI0
aI0
aI0
aI0
aI0
aI0
aI0
aI0
aI0
aI0
aI0
aI0
aI0
aI0
aI0
aI0
aI0
aI0
aI0
aI0
aI0
aI0
aI0
aI0
aI0
aI0
aI0
aI0
aI0
aI0
aI0
aI0
aI0
aI0
aI0
aI0
aI0
aI0
aI0
aI0
aI0
aI0
aI0
aI0
aI0
aI0
aI0
aI0
aI0
aI0
aI0
aI0
aI0
aI0
aI0
aI0
aI0
aI0
aI0
aI0
aI0
aI0
aI0
aI0
aI0
aI0
aI0
aI0
aI0
aI0
aI0
aI0
aI0
aI0
aI0
aI0
aa(lp31
I0
aI0
aI0
aI0
aI0
aI0
aI0
aI0
aI0
aI0
aI0
aI0
aI0
aI0
aI0
aI0
aI0
aI0
aI0
aI0
aI0
aI0
aI0
aI0
aI0
aI0
aI0
aI0
aI0
aI0
aI0
aI0
aI0
aI0
aI0
aI0
aI0
aI0
aI0
aI0
aI0
aI0
aI0
aI0
aI0
aI0
aI0
aI0
aI0
aI0
aI0
aI0
aI0
aI0
aI0
aI0
aI0
aI0
aI0
aI0
aI0
aI0
aI0
aI0
aI0
aI0
aI0
aI0
aI0
aI0
aI0
aI0
aI0
aI0
aI0
aI0
aI0
aI0
aI0
aI0
aI0
aI0
aI0
aI0
aI0
aI0
aI0
aI0
aI0
aI0
aI0
aI0
aI0
aI0
aI0
aa(lp32
I0
aI0
aI0
aI0
aI0
aI0
aI0
aI0
aI0
aI0
aI0
aI0
aI0
aI0
aI0
aI0
aI0
aI0
aI0
aI0
aI0
aI0
aI0
aI0
aI0
aI0
aI0
aI0
aI0
aI0
aI0
aI0
aI0
aI0
aI0
aI0
aI0
aI0
aI0
aI0
aI0
aI0
aI0
aI0
aI0
aI0
aI0
aI0
aI0
aI0
aI0
aI0
aI0
aI0
aI0
aI0
aI0
aI0
aI0
aI0
aI0
aI0
aI0
aI0
aI0
aI0
aI0
aI0
aI0
aI0
aI0
aI0
aI0
aI0
aI0
aI0
aI0
aI0
aI0
aI0
aI0
aI0
aI0
aI0
aI0
aI0
aI0
aI0
aI0
aI0
aI0
aI0
aI0
aI0
aI0
aa(lp33
I0
aI0
aI0
aI0
aI0
aI0
aI0
aI0
aI0
aI0
aI0
aI0
aI0
aI0
aI0
aI0
aI0
aI0
aI0
aI0
aI0
aI0
aI0
aI0
aI0
aI0
aI0
aI0
aI0
aI0
aI0
aI0
aI0
aI0
aI0
aI0
aI0
aI0
aI0
aI0
aI0
aI0
aI0
aI0
aI0
aI0
aI0
aI0
aI0
aI0
aI0
aI0
aI0
aI0
aI0
aI0
aI0
aI0
aI0
aI0
aI0
aI0
aI0
aI0
aI0
aI0
aI0
aI0
aI0
aI0
aI0
aI0
aI0
aI0
aI0
aI0
aI0
aI0
aI0
aI0
aI0
aI0
aI0
aI0
aI0
aI0
aI0
aI0
aI0
aI0
aI0
aI0
aI0
aI0
aI0
aa(lp34
I0
aI0
aI0
aI0
aI0
aI0
aI0
aI0
aI0
aI0
aI0
aI0
aI0
aI0
aI0
aI0
aI0
aI0
aI0
aI0
aI0
aI0
aI0
aI0
aI0
aI0
aI0
aI0
aI0
aI0
aI0
aI0
aI0
aI0
aI0
aI0
aI0
aI0
aI0
aI0
aI0
aI0
aI0
aI0
aI0
aI0
aI0
aI0
aI0
aI0
aI0
aI0
aI0
aI0
aI0
aI0
aI0
aI0
aI0
aI0
aI0
aI0
aI0
aI0
aI0
aI0
aI0
aI0
aI0
aI0
aI0
aI0
aI0
aI0
aI0
aI0
aI0
aI0
aI0
aI0
aI0
aI0
aI0
aI0
aI0
aI0
aI0
aI0
aI0
aI0
aI0
aI0
aI0
aI0
aI0
aasS'animati'
p35
(lp36
(dp37
S'image_source'
p38
NsS'image'
p39
NsS'classe'
p40
Vcatturabile
p41
sS'id'
p42
Vmucca8
p43
sS'gid'
p44
V1373
p45
sS'posizione'
p46
(I454
I1753
tp47
sS'is_segui'
p48
I00
sS'type'
p49
S'animato'
p50
sS'properties'
p51
(dp52
S'points'
p53
(lp54
sVsottotipo
p55
g41
sVpunto_arrivo
p56
V15,55
p57
sS'id'
p58
g43
ssS'name'
p59
Vmucca
p60
sa(dp61
g38
Nsg39
Nsg40
Vanimatosegue
p62
sg42
VWolf6
p63
sg44
V1371
p64
sg46
(I318
I290
tp65
sg48
I00
sg49
g50
sg51
(dp66
g53
(lp67
sg58
g63
sVsottotipo
p68
g62
ssg59
VWolf
p69
sa(dp70
g38
Nsg39
Nsg40
Vcatturabile
p71
sg42
Vcamel13
p72
sg44
V1374
p73
sg46
(I629
I1695
tp74
sg48
I00
sg49
g50
sg51
(dp75
g53
(lp76
sVsottotipo
p77
g71
sVpunto_arrivo
p78
V19,51
p79
sg58
g72
ssg59
Vcamel
p80
sa(dp81
g38
Nsg39
Nsg40
Vsemplicefermo
p82
sg42
Vpriest15
p83
sg44
V1378
p84
sg46
(I348
I134
tp85
sg48
I00
sg49
g50
sg51
(dp86
g53
(lp87
sg58
g83
sVsottotipo
p88
g82
ssg59
Vpriest
p89
sa(dp90
g38
Nsg39
Nsg40
Vcatturabile
p91
sg42
Vmucca11
p92
sg44
V1373
p93
sg46
(I484
I1899
tp94
sg48
I00
sg49
g50
sg51
(dp95
g53
(lp96
sVsottotipo
p97
g91
sVpunto_arrivo
p98
V12,62
p99
sg58
g92
ssg59
g60
sasS'cammina'
p100
I01
ssV.\u005cmappe\u005cmappe_da_unire\u005c001-1.tmx
p101
(dp102
S'dormi'
p103
I00
sS'matr_layer_raccolto'
p104
(lp105
(lp106
I0
aI0
aI0
aI0
aI0
aI0
aI0
aI0
aI0
aI0
aI0
aI0
aI0
aI0
aI0
aI0
aI0
aI0
aI0
aI0
aI0
aI0
aI0
aI0
aI0
aI0
aI0
aI0
aI0
aI0
aI0
aI0
aI0
aI0
aI0
aI0
aI0
aI0
aI0
aI0
aI0
aI0
aI0
aI0
aI0
aI0
aI0
aI0
aI0
aI0
aI0
aI0
aI0
aI0
aI0
aI0
aI0
aI0
aI0
aI0
aI0
aI0
aI0
aI0
aI0
aI0
aI0
aI0
aI0
aI0
aI0
aI0
aI0
aI0
aI0
aI0
aI0
aI0
aI0
aI0
aI0
aI0
aI0
aI0
aI0
aI0
aI0
aI0
aI0
aI0
aI0
aI0
aI0
aI0
aI0
aI0
aI0
aI0
aI0
aI0
aI0
aI0
aI0
aI0
aI0
aI0
aI0
aI0
aI0
aI0
aI0
aI0
aI0
aI0
aa(lp107
I0
aI0
aI0
aI0
aI0
aI0
aI0
aI0
aI0
aI0
aI0
aI0
aI0
aI0
aI0
aI0
aI0
aI0
aI0
aI0
aI0
aI0
aI0
aI0
aI0
aI0
aI0
aI0
aI0
aI0
aI0
aI0
aI0
aI0
aI0
aI0
aI0
aI0
aI0
aI0
aI0
aI0
aI0
aI0
aI0
aI0
aI0
aI0
aI0
aI0
aI0
aI0
aI0
aI0
aI0
aI0
aI0
aI0
aI0
aI0
aI0
aI0
aI0
aI0
aI0
aI0
aI0
aI0
aI0
aI0
aI0
aI0
aI0
aI0
aI0
aI0
aI0
aI0
aI0
aI0
aI0
aI0
aI0
aI0
aI0
aI0
aI0
aI0
aI0
aI0
aI0
aI0
aI0
aI0
aI0
aI0
aI0
aI0
aI0
aI0
aI0
aI0
aI0
aI0
aI0
aI0
aI0
aI0
aI0
aI0
aI0
aI0
aI0
aI0
aa(lp108
I0
aI0
aI0
aI0
aI0
aI0
aI0
aI0
aI0
aI0
aI0
aI0
aI0
aI0
aI0
aI0
aI0
aI0
aI0
aI0
aI0
aI0
aI0
aI0
aI0
aI0
aI0
aI0
aI0
aI0
aI0
aI0
aI0
aI0
aI0
aI0
aI0
aI0
aI0
aI0
aI0
aI0
aI0
aI0
aI0
aI0
aI0
aI0
aI0
aI0
aI0
aI0
aI0
aI0
aI0
aI0
aI0
aI0
aI0
aI0
aI0
aI0
aI0
aI0
aI0
aI0
aI0
aI0
aI0
aI0
aI0
aI0
aI0
aI0
aI0
aI0
aI0
aI0
aI0
aI0
aI0
aI0
aI0
aI0
aI0
aI0
aI0
aI0
aI0
aI0
aI0
aI0
aI0
aI0
aI0
aI0
aI0
aI0
aI0
aI0
aI0
aI0
aI0
aI0
aI0
aI0
aI0
aI0
aI0
aI0
aI0
aI0
aI0
aI0
aa(lp109
I0
aI0
aI0
aI0
aI0
aI0
aI0
aI0
aI0
aI0
aI0
aI0
aI0
aI0
aI0
aI0
aI0
aI0
aI0
aI0
aI0
aI0
aI0
aI0
aI0
aI0
aI0
aI0
aI0
aI0
aI0
aI0
aI0
aI0
aI0
aI0
aI0
aI0
aI0
aI0
aI0
aI0
aI0
aI0
aI0
aI0
aI0
aI0
aI0
aI0
aI0
aI0
aI0
aI0
aI0
aI0
aI0
aI0
aI0
aI0
aI0
aI0
aI0
aI0
aI0
aI0
aI0
aI0
aI0
aI0
aI0
aI0
aI0
aI0
aI0
aI0
aI0
aI0
aI0
aI0
aI0
aI0
aI0
aI0
aI0
aI0
aI0
aI0
aI0
aI0
aI0
aI0
aI0
aI0
aI0
aI0
aI0
aI0
aI0
aI0
aI0
aI0
aI0
aI0
aI0
aI0
aI0
aI0
aI0
aI0
aI0
aI0
aI0
aI0
aa(lp110
I0
aI0
aI0
aI0
aI0
aI0
aI0
aI0
aI0
aI0
aI0
aI0
aI0
aI0
aI0
aI0
aI0
aI0
aI0
aI0
aI0
aI0
aI0
aI0
aI0
aI0
aI0
aI0
aI0
aI0
aI0
aI0
aI0
aI0
aI0
aI0
aI0
aI0
aI0
aI0
aI0
aI0
aI0
aI0
aI0
aI0
aI0
aI0
aI0
aI0
aI0
aI0
aI0
aI0
aI0
aI0
aI0
aI0
aI0
aI0
aI0
aI0
aI0
aI0
aI0
aI0
aI0
aI0
aI0
aI0
aI0
aI0
aI0
aI0
aI0
aI0
aI0
aI0
aI0
aI0
aI0
aI0
aI0
aI0
aI0
aI0
aI0
aI0
aI0
aI0
aI0
aI0
aI0
aI0
aI0
aI0
aI0
aI0
aI0
aI0
aI0
aI0
aI0
aI0
aI0
aI0
aI0
aI0
aI0
aI0
aI0
aI0
aI0
aI0
aa(lp111
I0
aI0
aI0
aI0
aI0
aI0
aI0
aI0
aI0
aI0
aI0
aI0
aI0
aI0
aI0
aI0
aI0
aI0
aI0
aI0
aI0
aI0
aI0
aI0
aI0
aI0
aI0
aI0
aI0
aI0
aI0
aI0
aI0
aI0
aI0
aI0
aI0
aI0
aI0
aI0
aI0
aI0
aI0
aI0
aI0
aI0
aI0
aI0
aI0
aI0
aI0
aI0
aI0
aI0
aI0
aI0
aI0
aI0
aI0
aI0
aI0
aI0
aI0
aI0
aI0
aI0
aI0
aI0
aI0
aI0
aI0
aI0
aI0
aI0
aI0
aI0
aI0
aI0
aI0
aI0
aI0
aI0
aI0
aI0
aI0
aI0
aI0
aI0
aI0
aI0
aI0
aI0
aI0
aI0
aI0
aI0
aI0
aI0
aI0
aI0
aI0
aI0
aI0
aI0
aI0
aI0
aI0
aI0
aI0
aI0
aI0
aI0
aI0
aI0
aa(lp112
I0
aI0
aI0
aI0
aI0
aI0
aI0
aI0
aI0
aI0
aI0
aI0
aI0
aI0
aI0
aI0
aI0
aI0
aI0
aI0
aI0
aI0
aI0
aI0
aI0
aI0
aI0
aI0
aI0
aI0
aI0
aI0
aI0
aI0
aI0
aI0
aI0
aI0
aI0
aI0
aI0
aI0
aI0
aI0
aI0
aI0
aI0
aI0
aI0
aI0
aI0
aI0
aI0
aI0
aI0
aI0
aI0
aI0
aI0
aI0
aI0
aI0
aI0
aI0
aI0
aI0
aI0
aI0
aI0
aI0
aI0
aI0
aI0
aI0
aI0
aI0
aI0
aI0
aI0
aI0
aI0
aI0
aI0
aI0
aI0
aI0
aI0
aI0
aI0
aI0
aI0
aI0
aI0
aI0
aI0
aI0
aI0
aI0
aI0
aI0
aI0
aI0
aI0
aI0
aI0
aI0
aI0
aI0
aI0
aI0
aI0
aI0
aI0
aI0
aa(lp113
I0
aI0
aI0
aI0
aI0
aI0
aI0
aI0
aI0
aI0
aI0
aI0
aI0
aI0
aI0
aI0
aI0
aI0
aI0
aI0
aI0
aI0
aI0
aI0
aI0
aI0
aI0
aI0
aI0
aI0
aI0
aI0
aI0
aI0
aI0
aI0
aI0
aI0
aI0
aI0
aI0
aI0
aI0
aI0
aI0
aI0
aI0
aI0
aI0
aI0
aI0
aI0
aI0
aI0
aI0
aI0
aI0
aI0
aI0
aI0
aI0
aI0
aI0
aI0
aI0
aI0
aI0
aI0
aI0
aI0
aI0
aI0
aI0
aI0
aI0
aI0
aI0
aI0
aI0
aI0
aI0
aI0
aI0
aI0
aI0
aI0
aI0
aI0
aI0
aI0
aI0
aI0
aI0
aI0
aI0
aI0
aI0
aI0
aI0
aI0
aI0
aI0
aI0
aI0
aI0
aI0
aI0
aI0
aI0
aI0
aI0
aI0
aI0
aI0
aa(lp114
I0
aI0
aI0
aI0
aI0
aI0
aI0
aI0
aI0
aI0
aI0
aI0
aI0
aI0
aI0
aI0
aI0
aI0
aI0
aI0
aI0
aI0
aI0
aI0
aI0
aI0
aI0
aI0
aI0
aI0
aI0
aI0
aI0
aI0
aI0
aI0
aI0
aI0
aI0
aI0
aI0
aI0
aI0
aI0
aI0
aI0
aI0
aI0
aI0
aI0
aI0
aI0
aI0
aI0
aI0
aI0
aI0
aI0
aI0
aI0
aI0
aI0
aI0
aI0
aI0
aI0
aI0
aI0
aI0
aI0
aI0
aI0
aI0
aI0
aI0
aI0
aI0
aI0
aI0
aI0
aI0
aI0
aI0
aI0
aI0
aI0
aI0
aI0
aI0
aI0
aI0
aI0
aI0
aI0
aI0
aI0
aI0
aI0
aI0
aI0
aI0
aI0
aI0
aI0
aI0
aI0
aI0
aI0
aI0
aI0
aI0
aI0
aI0
aI0
aa(lp115
I0
aI0
aI0
aI0
aI0
aI0
aI0
aI0
aI0
aI0
aI0
aI0
aI0
aI0
aI0
aI0
aI0
aI0
aI0
aI0
aI0
aI0
aI0
aI0
aI0
aI0
aI0
aI0
aI0
aI0
aI0
aI0
aI0
aI0
aI0
aI0
aI0
aI0
aI0
aI0
aI0
aI0
aI0
aI0
aI0
aI0
aI0
aI0
aI0
aI0
aI0
aI0
aI0
aI0
aI0
aI0
aI0
aI0
aI0
aI0
aI0
aI0
aI0
aI0
aI0
aI0
aI0
aI0
aI0
aI0
aI0
aI0
aI0
aI0
aI0
aI0
aI0
aI0
aI0
aI0
aI0
aI0
aI0
aI0
aI0
aI0
aI0
aI0
aI0
aI0
aI0
aI0
aI0
aI0
aI0
aI0
aI0
aI0
aI0
aI0
aI0
aI0
aI0
aI0
aI0
aI0
aI0
aI0
aI0
aI0
aI0
aI0
aI0
aI0
aa(lp116
I0
aI0
aI0
aI0
aI0
aI0
aI0
aI0
aI0
aI0
aI0
aI0
aI0
aI0
aI0
aI0
aI0
aI0
aI0
aI0
aI0
aI0
aI0
aI0
aI0
aI0
aI0
aI0
aI0
aI0
aI0
aI0
aI0
aI0
aI0
aI0
aI0
aI0
aI0
aI0
aI0
aI0
aI0
aI0
aI0
aI0
aI0
aI0
aI0
aI0
aI0
aI0
aI0
aI0
aI0
aI0
aI0
aI0
aI0
aI0
aI0
aI0
aI0
aI0
aI0
aI0
aI0
aI0
aI0
aI0
aI0
aI0
aI0
aI0
aI0
aI0
aI0
aI0
aI0
aI0
aI0
aI0
aI0
aI0
aI0
aI0
aI0
aI0
aI0
aI0
aI0
aI0
aI0
aI0
aI0
aI0
aI0
aI0
aI0
aI0
aI0
aI0
aI0
aI0
aI0
aI0
aI0
aI0
aI0
aI0
aI0
aI0
aI0
aI0
aa(lp117
I0
aI0
aI0
aI0
aI0
aI0
aI0
aI0
aI0
aI0
aI0
aI0
aI0
aI0
aI0
aI0
aI0
aI0
aI0
aI0
aI0
aI0
aI0
aI0
aI0
aI0
aI0
aI0
aI0
aI0
aI0
aI0
aI0
aI0
aI0
aI0
aI0
aI0
aI0
aI0
aI0
aI0
aI0
aI0
aI0
aI0
aI0
aI0
aI0
aI0
aI0
aI0
aI0
aI0
aI0
aI0
aI0
aI0
aI0
aI0
aI0
aI0
aI0
aI0
aI0
aI0
aI0
aI0
aI0
aI0
aI0
aI0
aI0
aI0
aI0
aI0
aI0
aI0
aI0
aI0
aI0
aI0
aI0
aI0
aI0
aI0
aI0
aI0
aI0
aI0
aI0
aI0
aI0
aI0
aI0
aI0
aI0
aI0
aI0
aI0
aI0
aI0
aI0
aI0
aI0
aI0
aI0
aI0
aI0
aI0
aI0
aI0
aI0
aI0
aa(lp118
I0
aI0
aI0
aI0
aI0
aI0
aI0
aI0
aI0
aI0
aI0
aI0
aI0
aI0
aI0
aI0
aI0
aI0
aI0
aI0
aI0
aI0
aI0
aI0
aI0
aI0
aI0
aI0
aI0
aI0
aI0
aI0
aI0
aI0
aI0
aI0
aI0
aI0
aI0
aI0
aI0
aI0
aI0
aI0
aI0
aI0
aI0
aI0
aI0
aI0
aI0
aI0
aI0
aI0
aI0
aI0
aI0
aI0
aI0
aI0
aI0
aI0
aI0
aI0
aI0
aI0
aI0
aI0
aI0
aI0
aI0
aI0
aI0
aI0
aI0
aI0
aI0
aI0
aI0
aI0
aI0
aI0
aI0
aI0
aI0
aI0
aI0
aI0
aI0
aI0
aI0
aI0
aI0
aI0
aI0
aI0
aI0
aI0
aI0
aI0
aI0
aI0
aI0
aI0
aI0
aI0
aI0
aI0
aI0
aI0
aI0
aI0
aI0
aI0
aa(lp119
I0
aI0
aI0
aI0
aI0
aI0
aI0
aI0
aI0
aI0
aI0
aI0
aI0
aI0
aI0
aI0
aI0
aI0
aI0
aI0
aI0
aI0
aI0
aI0
aI0
aI0
aI0
aI0
aI0
aI0
aI0
aI0
aI0
aI0
aI0
aI0
aI0
aI0
aI0
aI0
aI0
aI0
aI0
aI0
aI0
aI0
aI0
aI0
aI0
aI0
aI0
aI0
aI0
aI0
aI0
aI0
aI0
aI0
aI0
aI0
aI0
aI0
aI0
aI0
aI0
aI0
aI0
aI0
aI0
aI0
aI0
aI0
aI0
aI0
aI0
aI0
aI0
aI0
aI0
aI0
aI0
aI0
aI0
aI0
aI0
aI0
aI0
aI0
aI0
aI0
aI0
aI0
aI0
aI0
aI0
aI0
aI0
aI0
aI0
aI0
aI0
aI0
aI0
aI0
aI0
aI0
aI0
aI0
aI0
aI0
aI0
aI0
aI0
aI0
aa(lp120
I0
aI0
aI0
aI0
aI0
aI0
aI0
aI0
aI0
aI0
aI0
aI0
aI0
aI0
aI0
aI0
aI0
aI0
aI0
aI0
aI0
aI0
aI0
aI0
aI0
aI0
aI0
aI0
aI0
aI0
aI0
aI0
aI0
aI0
aI0
aI0
aI0
aI0
aI0
aI0
aI0
aI0
aI0
aI0
aI0
aI0
aI0
aI0
aI0
aI0
aI0
aI0
aI0
aI0
aI0
aI0
aI0
aI0
aI0
aI0
aI0
aI0
aI0
aI0
aI0
aI0
aI0
aI0
aI0
aI0
aI0
aI0
aI0
aI0
aI0
aI0
aI0
aI0
aI0
aI0
aI0
aI0
aI0
aI0
aI0
aI0
aI0
aI0
aI0
aI0
aI0
aI0
aI0
aI0
aI0
aI0
aI0
aI0
aI0
aI0
aI0
aI0
aI0
aI0
aI0
aI0
aI0
aI0
aI0
aI0
aI0
aI0
aI0
aI0
aa(lp121
I0
aI0
aI0
aI0
aI0
aI0
aI0
aI0
aI0
aI0
aI0
aI0
aI0
aI0
aI0
aI0
aI0
aI0
aI0
aI0
aI0
aI0
aI0
aI0
aI0
aI0
aI0
aI0
aI0
aI0
aI0
aI0
aI0
aI0
aI0
aI0
aI0
aI0
aI0
aI0
aI0
aI0
aI0
aI0
aI0
aI0
aI0
aI0
aI0
aI0
aI0
aI0
aI0
aI0
aI0
aI0
aI0
aI0
aI0
aI0
aI0
aI0
aI0
aI0
aI0
aI0
aI0
aI0
aI0
aI0
aI0
aI0
aI0
aI0
aI0
aI0
aI0
aI0
aI0
aI0
aI0
aI0
aI0
aI0
aI0
aI0
aI0
aI0
aI0
aI0
aI0
aI0
aI0
aI0
aI0
aI0
aI0
aI0
aI0
aI0
aI0
aI0
aI0
aI0
aI0
aI0
aI0
aI0
aI0
aI0
aI0
aI0
aI0
aI0
aa(lp122
I0
aI0
aI0
aI0
aI0
aI0
aI0
aI0
aI0
aI0
aI0
aI0
aI0
aI0
aI0
aI0
aI0
aI0
aI0
aI0
aI0
aI0
aI0
aI0
aI0
aI0
aI0
aI0
aI0
aI0
aI0
aI0
aI0
aI0
aI0
aI0
aI0
aI0
aI0
aI0
aI0
aI0
aI0
aI0
aI0
aI0
aI0
aI0
aI0
aI0
aI0
aI0
aI0
aI0
aI0
aI0
aI0
aI0
aI0
aI0
aI0
aI0
aI0
aI0
aI0
aI0
aI0
aI0
aI0
aI0
aI0
aI0
aI0
aI0
aI0
aI0
aI0
aI0
aI0
aI0
aI0
aI0
aI0
aI0
aI0
aI0
aI0
aI0
aI0
aI0
aI0
aI0
aI0
aI0
aI0
aI0
aI0
aI0
aI0
aI0
aI0
aI0
aI0
aI0
aI0
aI0
aI0
aI0
aI0
aI0
aI0
aI0
aI0
aI0
aa(lp123
I0
aI0
aI0
aI0
aI0
aI0
aI0
aI0
aI0
aI0
aI0
aI0
aI0
aI0
aI0
aI0
aI0
aI0
aI0
aI0
aI0
aI0
aI0
aI0
aI0
aI0
aI0
aI0
aI0
aI0
aI0
aI0
aI0
aI0
aI0
aI0
aI0
aI0
aI0
aI0
aI0
aI0
aI0
aI0
aI0
aI0
aI0
aI0
aI0
aI0
aI0
aI0
aI0
aI0
aI0
aI0
aI0
aI0
aI0
aI0
aI0
aI0
aI0
aI0
aI0
aI0
aI0
aI0
aI0
aI0
aI0
aI0
aI0
aI0
aI0
aI0
aI0
aI0
aI0
aI0
aI0
aI0
aI0
aI0
aI0
aI0
aI0
aI0
aI0
aI0
aI0
aI0
aI0
aI0
aI0
aI0
aI0
aI0
aI0
aI0
aI0
aI0
aI0
aI0
aI0
aI0
aI0
aI0
aI0
aI0
aI0
aI0
aI0
aI0
aa(lp124
I0
aI0
aI0
aI0
aI0
aI0
aI0
aI0
aI0
aI0
aI0
aI0
aI0
aI0
aI0
aI0
aI0
aI0
aI0
aI0
aI0
aI0
aI0
aI0
aI0
aI0
aI0
aI0
aI0
aI0
aI0
aI0
aI0
aI0
aI0
aI0
aI0
aI0
aI0
aI0
aI0
aI0
aI0
aI0
aI0
aI0
aI0
aI0
aI0
aI0
aI0
aI0
aI0
aI0
aI0
aI0
aI0
aI0
aI0
aI0
aI0
aI0
aI0
aI0
aI0
aI0
aI0
aI0
aI0
aI0
aI0
aI0
aI0
aI0
aI0
aI0
aI0
aI0
aI0
aI0
aI0
aI0
aI0
aI0
aI0
aI0
aI0
aI0
aI0
aI0
aI0
aI0
aI0
aI0
aI0
aI0
aI0
aI0
aI0
aI0
aI0
aI0
aI0
aI0
aI0
aI0
aI0
aI0
aI0
aI0
aI0
aI0
aI0
aI0
aa(lp125
I0
aI0
aI0
aI0
aI0
aI0
aI0
aI0
aI0
aI0
aI0
aI0
aI0
aI0
aI0
aI0
aI0
aI0
aI0
aI0
aI0
aI0
aI0
aI0
aI0
aI0
aI0
aI0
aI0
aI0
aI0
aI0
aI0
aI0
aI0
aI0
aI0
aI0
aI0
aI0
aI0
aI0
aI0
aI0
aI0
aI0
aI0
aI0
aI0
aI0
aI0
aI0
aI0
aI0
aI0
aI0
aI0
aI0
aI0
aI0
aI0
aI0
aI0
aI0
aI0
aI0
aI0
aI0
aI0
aI0
aI0
aI0
aI0
aI0
aI0
aI0
aI0
aI0
aI0
aI0
aI0
aI0
aI0
aI0
aI0
aI0
aI0
aI0
aI0
aI0
aI0
aI0
aI0
aI0
aI0
aI0
aI0
aI0
aI0
aI0
aI0
aI0
aI0
aI0
aI0
aI0
aI0
aI0
aI0
aI0
aI0
aI0
aI0
aI0
aa(lp126
I0
aI0
aI0
aI0
aI0
aI0
aI0
aI0
aI0
aI0
aI0
aI0
aI0
aI0
aI0
aI0
aI0
aI0
aI0
aI0
aI0
aI0
aI0
aI0
aI0
aI0
aI0
aI0
aI0
aI0
aI0
aI0
aI0
aI0
aI0
aI0
aI0
aI0
aI0
aI0
aI0
aI0
aI0
aI0
aI0
aI0
aI0
aI0
aI0
aI0
aI0
aI0
aI0
aI0
aI0
aI0
aI0
aI0
aI0
aI0
aI0
aI0
aI0
aI0
aI0
aI0
aI0
aI0
aI0
aI0
aI0
aI0
aI0
aI0
aI0
aI0
aI0
aI0
aI0
aI0
aI0
aI0
aI0
aI0
aI0
aI0
aI0
aI0
aI0
aI0
aI0
aI0
aI0
aI0
aI0
aI0
aI0
aI0
aI0
aI0
aI0
aI0
aI0
aI0
aI0
aI0
aI0
aI0
aI0
aI0
aI0
aI0
aI0
aI0
aa(lp127
I0
aI0
aI0
aI0
aI0
aI0
aI0
aI0
aI0
aI0
aI0
aI0
aI0
aI0
aI0
aI0
aI0
aI0
aI0
aI0
aI0
aI0
aI0
aI0
aI0
aI0
aI0
aI0
aI0
aI0
aI0
aI0
aI0
aI0
aI0
aI0
aI0
aI0
aI0
aI0
aI0
aI0
aI0
aI0
aI0
aI0
aI0
aI0
aI0
aI0
aI0
aI0
aI0
aI0
aI0
aI0
aI0
aI0
aI0
aI0
aI0
aI0
aI0
aI0
aI0
aI0
aI0
aI0
aI0
aI0
aI0
aI0
aI0
aI0
aI0
aI0
aI0
aI0
aI0
aI0
aI0
aI0
aI0
aI0
aI0
aI0
aI0
aI0
aI0
aI0
aI0
aI0
aI0
aI0
aI0
aI0
aI0
aI0
aI0
aI0
aI0
aI0
aI0
aI0
aI0
aI0
aI0
aI0
aI0
aI0
aI0
aI0
aI0
aI0
aa(lp128
I0
aI0
aI0
aI0
aI0
aI0
aI0
aI0
aI0
aI0
aI0
aI0
aI0
aI0
aI0
aI0
aI0
aI0
aI0
aI0
aI0
aI0
aI0
aI0
aI0
aI0
aI0
aI0
aI0
aI0
aI0
aI0
aI0
aI0
aI0
aI0
aI0
aI0
aI0
aI0
aI0
aI0
aI0
aI0
aI0
aI0
aI0
aI0
aI0
aI0
aI0
aI0
aI0
aI0
aI0
aI0
aI0
aI0
aI0
aI0
aI0
aI0
aI0
aI0
aI0
aI0
aI0
aI0
aI0
aI0
aI0
aI0
aI0
aI0
aI0
aI0
aI0
aI0
aI0
aI0
aI0
aI0
aI0
aI0
aI0
aI0
aI0
aI0
aI0
aI0
aI0
aI0
aI0
aI0
aI0
aI0
aI0
aI0
aI0
aI0
aI0
aI0
aI0
aI0
aI0
aI0
aI0
aI0
aI0
aI0
aI0
aI0
aI0
aI0
aa(lp129
I0
aI0
aI0
aI0
aI0
aI0
aI0
aI0
aI0
aI0
aI0
aI0
aI0
aI0
aI0
aI0
aI0
aI0
aI0
aI0
aI0
aI0
aI0
aI0
aI0
aI0
aI0
aI0
aI0
aI0
aI0
aI0
aI0
aI0
aI0
aI0
aI0
aI0
aI0
aI0
aI0
aI0
aI0
aI0
aI0
aI0
aI0
aI0
aI0
aI0
aI0
aI0
aI0
aI0
aI0
aI0
aI0
aI0
aI0
aI0
aI0
aI0
aI0
aI0
aI0
aI0
aI0
aI0
aI0
aI0
aI0
aI0
aI0
aI0
aI0
aI0
aI0
aI0
aI0
aI0
aI0
aI0
aI0
aI0
aI0
aI0
aI0
aI0
aI0
aI0
aI0
aI0
aI0
aI0
aI0
aI0
aI0
aI0
aI0
aI0
aI0
aI0
aI0
aI0
aI0
aI0
aI0
aI0
aI0
aI0
aI0
aI0
aI0
aI0
aa(lp130
I0
aI0
aI0
aI0
aI0
aI0
aI0
aI0
aI0
aI0
aI0
aI0
aI0
aI0
aI0
aI0
aI0
aI0
aI0
aI0
aI0
aI0
aI0
aI0
aI0
aI0
aI0
aI0
aI0
aI0
aI0
aI0
aI0
aI0
aI0
aI0
aI0
aI0
aI0
aI0
aI0
aI0
aI0
aI0
aI0
aI0
aI0
aI0
aI0
aI0
aI0
aI0
aI0
aI0
aI0
aI0
aI0
aI0
aI0
aI0
aI0
aI0
aI0
aI0
aI0
aI0
aI0
aI0
aI0
aI0
aI0
aI0
aI0
aI0
aI0
aI0
aI0
aI0
aI0
aI0
aI0
aI0
aI0
aI0
aI0
aI0
aI0
aI0
aI0
aI0
aI0
aI0
aI0
aI0
aI0
aI0
aI0
aI0
aI0
aI0
aI0
aI0
aI0
aI0
aI0
aI0
aI0
aI0
aI0
aI0
aI0
aI0
aI0
aI0
aa(lp131
I0
aI0
aI0
aI0
aI0
aI0
aI0
aI0
aI0
aI0
aI0
aI0
aI0
aI0
aI0
aI0
aI0
aI0
aI0
aI0
aI0
aI0
aI0
aI0
aI0
aI0
aI0
aI0
aI0
aI0
aI0
aI0
aI0
aI0
aI0
aI0
aI0
aI0
aI0
aI0
aI0
aI0
aI0
aI0
aI0
aI0
aI0
aI0
aI0
aI0
aI0
aI0
aI0
aI0
aI0
aI0
aI0
aI0
aI0
aI0
aI0
aI0
aI0
aI0
aI0
aI0
aI0
aI0
aI0
aI0
aI0
aI0
aI0
aI0
aI0
aI0
aI0
aI0
aI0
aI0
aI0
aI0
aI0
aI0
aI0
aI0
aI0
aI0
aI0
aI0
aI0
aI0
aI0
aI0
aI0
aI0
aI0
aI0
aI0
aI0
aI0
aI0
aI0
aI0
aI0
aI0
aI0
aI0
aI0
aI0
aI0
aI0
aI0
aI0
aa(lp132
I0
aI0
aI0
aI0
aI0
aI0
aI0
aI0
aI0
aI0
aI0
aI0
aI0
aI0
aI0
aI0
aI0
aI0
aI0
aI0
aI0
aI0
aI0
aI0
aI0
aI0
aI0
aI0
aI0
aI0
aI0
aI0
aI0
aI0
aI0
aI0
aI0
aI0
aI0
aI0
aI0
aI0
aI0
aI0
aI0
aI0
aI0
aI0
aI0
aI0
aI0
aI0
aI0
aI0
aI0
aI0
aI0
aI0
aI0
aI0
aI0
aI0
aI0
aI0
aI0
aI0
aI0
aI0
aI0
aI0
aI0
aI0
aI0
aI0
aI0
aI0
aI0
aI0
aI0
aI0
aI0
aI0
aI0
aI0
aI0
aI0
aI0
aI0
aI0
aI0
aI0
aI0
aI0
aI0
aI0
aI0
aI0
aI0
aI0
aI0
aI0
aI0
aI0
aI0
aI0
aI0
aI0
aI0
aI0
aI0
aI0
aI0
aI0
aI0
aa(lp133
I0
aI0
aI0
aI0
aI0
aI0
aI0
aI0
aI0
aI0
aI0
aI0
aI0
aI0
aI0
aI0
aI0
aI0
aI0
aI0
aI0
aI0
aI0
aI0
aI0
aI0
aI0
aI0
aI0
aI0
aI0
aI0
aI0
aI0
aI0
aI0
aI0
aI0
aI0
aI0
aI0
aI0
aI0
aI0
aI0
aI0
aI0
aI0
aI0
aI0
aI0
aI0
aI0
aI0
aI0
aI0
aI0
aI0
aI0
aI0
aI0
aI0
aI0
aI0
aI0
aI0
aI0
aI0
aI0
aI0
aI0
aI0
aI0
aI0
aI0
aI0
aI0
aI0
aI0
aI0
aI0
aI0
aI0
aI0
aI0
aI0
aI0
aI0
aI0
aI0
aI0
aI0
aI0
aI0
aI0
aI0
aI0
aI0
aI0
aI0
aI0
aI0
aI0
aI0
aI0
aI0
aI0
aI0
aI0
aI0
aI0
aI0
aI0
aI0
aa(lp134
I0
aI0
aI0
aI0
aI0
aI0
aI0
aI0
aI0
aI0
aI0
aI0
aI0
aI0
aI0
aI0
aI0
aI0
aI0
aI0
aI0
aI0
aI0
aI0
aI0
aI0
aI0
aI0
aI0
aI0
aI0
aI0
aI0
aI0
aI0
aI0
aI0
aI0
aI0
aI0
aI0
aI0
aI0
aI0
aI0
aI0
aI0
aI0
aI0
aI0
aI0
aI0
aI0
aI0
aI0
aI0
aI0
aI0
aI0
aI0
aI0
aI0
aI0
aI0
aI0
aI0
aI0
aI0
aI0
aI0
aI0
aI0
aI0
aI0
aI0
aI0
aI0
aI0
aI0
aI0
aI0
aI0
aI0
aI0
aI0
aI0
aI0
aI0
aI0
aI0
aI0
aI0
aI0
aI0
aI0
aI0
aI0
aI0
aI0
aI0
aI0
aI0
aI0
aI0
aI0
aI0
aI0
aI0
aI0
aI0
aI0
aI0
aI0
aI0
aa(lp135
I0
aI0
aI0
aI0
aI0
aI0
aI0
aI0
aI0
aI0
aI0
aI0
aI0
aI0
aI0
aI0
aI0
aI0
aI0
aI0
aI0
aI0
aI0
aI0
aI0
aI0
aI0
aI0
aI0
aI0
aI0
aI0
aI0
aI0
aI0
aI0
aI0
aI0
aI0
aI0
aI0
aI0
aI0
aI0
aI0
aI0
aI0
aI0
aI0
aI0
aI0
aI0
aI0
aI0
aI0
aI0
aI0
aI0
aI0
aI0
aI0
aI0
aI0
aI0
aI0
aI0
aI0
aI0
aI0
aI0
aI0
aI0
aI0
aI0
aI0
aI0
aI0
aI0
aI0
aI0
aI0
aI0
aI0
aI0
aI0
aI0
aI0
aI0
aI0
aI0
aI0
aI0
aI0
aI0
aI0
aI0
aI0
aI0
aI0
aI0
aI0
aI0
aI0
aI0
aI0
aI0
aI0
aI0
aI0
aI0
aI0
aI0
aI0
aI0
aa(lp136
I0
aI0
aI0
aI0
aI0
aI0
aI0
aI0
aI0
aI0
aI0
aI0
aI0
aI0
aI0
aI0
aI0
aI0
aI0
aI0
aI0
aI0
aI0
aI0
aI0
aI0
aI0
aI0
aI0
aI0
aI0
aI0
aI0
aI0
aI0
aI0
aI0
aI0
aI0
aI0
aI0
aI0
aI0
aI0
aI0
aI0
aI0
aI0
aI0
aI0
aI0
aI0
aI0
aI0
aI0
aI0
aI0
aI0
aI0
aI0
aI0
aI0
aI0
aI0
aI0
aI0
aI0
aI0
aI0
aI0
aI0
aI0
aI0
aI0
aI0
aI0
aI0
aI0
aI0
aI0
aI0
aI0
aI0
aI0
aI0
aI0
aI0
aI0
aI0
aI0
aI0
aI0
aI0
aI0
aI0
aI0
aI0
aI0
aI0
aI0
aI0
aI0
aI0
aI0
aI0
aI0
aI0
aI0
aI0
aI0
aI0
aI0
aI0
aI0
aa(lp137
I0
aI0
aI0
aI0
aI0
aI0
aI0
aI0
aI0
aI0
aI0
aI0
aI0
aI0
aI0
aI0
aI0
aI0
aI0
aI0
aI0
aI0
aI0
aI0
aI0
aI0
aI0
aI0
aI0
aI0
aI0
aI0
aI0
aI0
aI0
aI0
aI0
aI0
aI0
aI0
aI0
aI0
aI0
aI0
aI0
aI0
aI0
aI0
aI0
aI0
aI0
aI0
aI0
aI0
aI0
aI0
aI0
aI0
aI0
aI0
aI0
aI0
aI0
aI0
aI0
aI0
aI0
aI0
aI0
aI0
aI0
aI0
aI0
aI0
aI0
aI0
aI0
aI0
aI0
aI0
aI0
aI0
aI0
aI0
aI0
aI0
aI0
aI0
aI0
aI0
aI0
aI0
aI0
aI0
aI0
aI0
aI0
aI0
aI0
aI0
aI0
aI0
aI0
aI0
aI0
aI0
aI0
aI0
aI0
aI0
aI0
aI0
aI0
aI0
aa(lp138
I0
aI0
aI0
aI0
aI0
aI0
aI0
aI0
aI0
aI0
aI0
aI0
aI0
aI0
aI0
aI0
aI0
aI0
aI0
aI0
aI0
aI0
aI0
aI0
aI0
aI0
aI0
aI0
aI0
aI0
aI0
aI0
aI0
aI0
aI0
aI0
aI0
aI0
aI0
aI0
aI0
aI0
aI0
aI0
aI0
aI0
aI0
aI0
aI0
aI0
aI0
aI0
aI0
aI0
aI0
aI0
aI0
aI0
aI0
aI0
aI0
aI0
aI0
aI0
aI0
aI0
aI0
aI0
aI0
aI0
aI0
aI0
aI0
aI0
aI0
aI0
aI0
aI0
aI0
aI0
aI0
aI0
aI0
aI0
aI0
aI0
aI0
aI0
aI0
aI0
aI0
aI0
aI0
aI0
aI0
aI0
aI0
aI0
aI0
aI0
aI0
aI0
aI0
aI0
aI0
aI0
aI0
aI0
aI0
aI0
aI0
aI0
aI0
aI0
aa(lp139
I0
aI0
aI0
aI0
aI0
aI0
aI0
aI0
aI0
aI0
aI0
aI0
aI0
aI0
aI0
aI0
aI0
aI0
aI0
aI0
aI0
aI0
aI0
aI0
aI0
aI0
aI0
aI0
aI0
aI0
aI0
aI0
aI0
aI0
aI0
aI0
aI0
aI0
aI0
aI0
aI0
aI0
aI0
aI0
aI0
aI0
aI0
aI0
aI0
aI0
aI0
aI0
aI0
aI0
aI0
aI0
aI0
aI0
aI0
aI0
aI0
aI0
aI0
aI0
aI0
aI0
aI0
aI0
aI0
aI0
aI0
aI0
aI0
aI0
aI0
aI0
aI0
aI0
aI0
aI0
aI0
aI0
aI0
aI0
aI0
aI0
aI0
aI0
aI0
aI0
aI0
aI0
aI0
aI0
aI0
aI0
aI0
aI0
aI0
aI0
aI0
aI0
aI0
aI0
aI0
aI0
aI0
aI0
aI0
aI0
aI0
aI0
aI0
aI0
aa(lp140
I0
aI0
aI0
aI0
aI0
aI0
aI0
aI0
aI0
aI0
aI0
aI0
aI0
aI0
aI0
aI0
aI0
aI0
aI0
aI0
aI0
aI0
aI0
aI0
aI0
aI0
aI0
aI0
aI0
aI0
aI0
aI0
aI0
aI0
aI0
aI0
aI0
aI0
aI0
aI0
aI0
aI0
aI0
aI0
aI0
aI0
aI0
aI0
aI0
aI0
aI0
aI0
aI0
aI0
aI0
aI0
aI0
aI0
aI0
aI0
aI0
aI0
aI0
aI0
aI0
aI0
aI0
aI0
aI0
aI0
aI0
aI0
aI0
aI0
aI0
aI0
aI0
aI0
aI0
aI0
aI0
aI0
aI0
aI0
aI0
aI0
aI0
aI0
aI0
aI0
aI0
aI0
aI0
aI0
aI0
aI0
aI0
aI0
aI0
aI0
aI0
aI0
aI0
aI0
aI0
aI0
aI0
aI0
aI0
aI0
aI0
aI0
aI0
aI0
aa(lp141
I0
aI0
aI0
aI0
aI0
aI0
aI0
aI0
aI0
aI0
aI0
aI0
aI0
aI0
aI0
aI0
aI0
aI0
aI0
aI0
aI0
aI0
aI0
aI0
aI0
aI0
aI0
aI0
aI0
aI0
aI0
aI0
aI0
aI0
aI0
aI0
aI0
aI0
aI0
aI0
aI0
aI0
aI0
aI0
aI0
aI0
aI0
aI0
aI0
aI0
aI0
aI0
aI0
aI0
aI0
aI0
aI0
aI0
aI0
aI0
aI0
aI0
aI0
aI0
aI0
aI0
aI0
aI0
aI0
aI0
aI0
aI0
aI0
aI0
aI0
aI0
aI0
aI0
aI0
aI0
aI0
aI0
aI0
aI0
aI0
aI0
aI0
aI0
aI0
aI0
aI0
aI0
aI0
aI0
aI0
aI0
aI0
aI0
aI0
aI0
aI0
aI0
aI0
aI0
aI0
aI0
aI0
aI0
aI0
aI0
aI0
aI0
aI0
aI0
aa(lp142
I0
aI0
aI0
aI0
aI0
aI0
aI0
aI0
aI0
aI0
aI0
aI0
aI0
aI0
aI0
aI0
aI0
aI0
aI0
aI0
aI0
aI0
aI0
aI0
aI0
aI0
aI0
aI0
aI0
aI0
aI0
aI0
aI0
aI0
aI0
aI0
aI0
aI0
aI0
aI0
aI0
aI0
aI0
aI0
aI0
aI0
aI0
aI0
aI0
aI0
aI0
aI0
aI0
aI0
aI0
aI0
aI0
aI0
aI0
aI0
aI0
aI0
aI0
aI0
aI0
aI0
aI0
aI0
aI0
aI0
aI0
aI0
aI0
aI0
aI0
aI0
aI0
aI0
aI0
aI0
aI0
aI0
aI0
aI0
aI0
aI0
aI0
aI0
aI0
aI0
aI0
aI0
aI0
aI0
aI0
aI0
aI0
aI0
aI0
aI0
aI0
aI0
aI0
aI0
aI0
aI0
aI0
aI0
aI0
aI0
aI0
aI0
aI0
aI0
aa(lp143
I0
aI0
aI0
aI0
aI0
aI0
aI0
aI0
aI0
aI0
aI0
aI0
aI0
aI0
aI0
aI0
aI0
aI0
aI0
aI0
aI0
aI0
aI0
aI0
aI0
aI0
aI0
aI0
aI0
aI0
aI0
aI0
aI0
aI0
aI0
aI0
aI0
aI0
aI0
aI0
aI0
aI0
aI0
aI0
aI0
aI0
aI0
aI0
aI0
aI0
aI0
aI0
aI0
aI0
aI0
aI0
aI0
aI0
aI0
aI0
aI0
aI0
aI0
aI0
aI0
aI0
aI0
aI0
aI0
aI0
aI0
aI0
aI0
aI0
aI0
aI0
aI0
aI0
aI0
aI0
aI0
aI0
aI0
aI0
aI0
aI0
aI0
aI0
aI0
aI0
aI0
aI0
aI0
aI0
aI0
aI0
aI0
aI0
aI0
aI0
aI0
aI0
aI0
aI0
aI0
aI0
aI0
aI0
aI0
aI0
aI0
aI0
aI0
aI0
aa(lp144
I0
aI0
aI0
aI0
aI0
aI0
aI0
aI0
aI0
aI0
aI0
aI0
aI0
aI0
aI0
aI0
aI0
aI0
aI0
aI0
aI0
aI0
aI0
aI0
aI0
aI0
aI0
aI0
aI0
aI0
aI0
aI0
aI0
aI0
aI0
aI0
aI0
aI0
aI0
aI0
aI0
aI0
aI0
aI0
aI0
aI0
aI0
aI0
aI0
aI0
aI0
aI0
aI0
aI0
aI0
aI0
aI0
aI0
aI0
aI0
aI0
aI0
aI0
aI0
aI0
aI0
aI0
aI0
aI0
aI0
aI0
aI0
aI0
aI0
aI0
aI0
aI0
aI0
aI0
aI0
aI0
aI0
aI0
aI0
aI0
aI0
aI0
aI0
aI0
aI0
aI0
aI0
aI0
aI0
aI0
aI0
aI0
aI0
aI0
aI0
aI0
aI0
aI0
aI0
aI0
aI0
aI0
aI0
aI0
aI0
aI0
aI0
aI0
aI0
aa(lp145
I0
aI0
aI0
aI0
aI0
aI0
aI0
aI0
aI0
aI0
aI0
aI0
aI0
aI0
aI0
aI0
aI0
aI0
aI0
aI0
aI0
aI0
aI0
aI0
aI0
aI0
aI0
aI0
aI0
aI0
aI0
aI0
aI0
aI0
aI0
aI0
aI0
aI0
aI0
aI0
aI0
aI0
aI0
aI0
aI0
aI0
aI0
aI0
aI0
aI0
aI0
aI0
aI0
aI0
aI0
aI0
aI0
aI0
aI0
aI0
aI0
aI0
aI0
aI0
aI0
aI0
aI0
aI0
aI0
aI0
aI0
aI0
aI0
aI0
aI0
aI0
aI0
aI0
aI0
aI0
aI0
aI0
aI0
aI0
aI0
aI0
aI0
aI0
aI0
aI0
aI0
aI0
aI0
aI0
aI0
aI0
aI0
aI0
aI0
aI0
aI0
aI0
aI0
aI0
aI0
aI0
aI0
aI0
aI0
aI0
aI0
aI0
aI0
aI0
aa(lp146
I0
aI0
aI0
aI0
aI0
aI0
aI0
aI0
aI0
aI0
aI0
aI0
aI0
aI0
aI0
aI0
aI0
aI0
aI0
aI0
aI0
aI0
aI0
aI0
aI0
aI0
aI0
aI0
aI0
aI0
aI0
aI0
aI0
aI0
aI0
aI0
aI0
aI0
aI0
aI0
aI0
aI0
aI0
aI0
aI0
aI0
aI0
aI0
aI0
aI0
aI0
aI0
aI0
aI0
aI0
aI0
aI0
aI0
aI0
aI0
aI0
aI0
aI0
aI0
aI0
aI0
aI0
aI0
aI0
aI0
aI0
aI0
aI0
aI0
aI0
aI0
aI0
aI0
aI0
aI0
aI0
aI0
aI0
aI0
aI0
aI0
aI0
aI0
aI0
aI0
aI0
aI0
aI0
aI0
aI0
aI0
aI0
aI0
aI0
aI0
aI0
aI0
aI0
aI0
aI0
aI0
aI0
aI0
aI0
aI0
aI0
aI0
aI0
aI0
aa(lp147
I0
aI0
aI0
aI0
aI0
aI0
aI0
aI0
aI0
aI0
aI0
aI0
aI0
aI0
aI0
aI0
aI0
aI0
aI0
aI0
aI0
aI0
aI0
aI0
aI0
aI0
aI0
aI0
aI0
aI0
aI0
aI0
aI0
aI0
aI0
aI0
aI0
aI0
aI0
aI0
aI0
aI0
aI0
aI0
aI0
aI0
aI0
aI0
aI0
aI0
aI0
aI0
aI0
aI0
aI0
aI0
aI0
aI0
aI0
aI0
aI0
aI0
aI0
aI0
aI0
aI0
aI0
aI0
aI0
aI0
aI0
aI0
aI0
aI0
aI0
aI0
aI0
aI0
aI0
aI0
aI0
aI0
aI0
aI0
aI0
aI0
aI0
aI0
aI0
aI0
aI0
aI0
aI0
aI0
aI0
aI0
aI0
aI0
aI0
aI0
aI0
aI0
aI0
aI0
aI0
aI0
aI0
aI0
aI0
aI0
aI0
aI0
aI0
aI0
aa(lp148
I0
aI0
aI0
aI0
aI0
aI0
aI0
aI0
aI0
aI0
aI0
aI0
aI0
aI0
aI0
aI0
aI0
aI0
aI0
aI0
aI0
aI0
aI0
aI0
aI0
aI0
aI0
aI0
aI0
aI0
aI0
aI0
aI0
aI0
aI0
aI0
aI0
aI0
aI0
aI0
aI0
aI0
aI0
aI0
aI0
aI0
aI0
aI0
aI0
aI0
aI0
aI0
aI0
aI0
aI0
aI0
aI0
aI0
aI0
aI0
aI0
aI0
aI0
aI0
aI0
aI0
aI0
aI0
aI0
aI0
aI0
aI0
aI0
aI0
aI0
aI0
aI0
aI0
aI0
aI0
aI0
aI0
aI0
aI0
aI0
aI0
aI0
aI0
aI0
aI0
aI0
aI0
aI0
aI0
aI0
aI0
aI0
aI0
aI0
aI0
aI0
aI0
aI0
aI0
aI0
aI0
aI0
aI0
aI0
aI0
aI0
aI0
aI0
aI0
aa(lp149
I0
aI0
aI0
aI0
aI0
aI0
aI0
aI0
aI0
aI0
aI0
aI0
aI0
aI0
aI0
aI0
aI0
aI0
aI0
aI0
aI0
aI0
aI0
aI0
aI0
aI0
aI0
aI0
aI0
aI0
aI0
aI0
aI0
aI0
aI0
aI0
aI0
aI0
aI0
aI0
aI0
aI0
aI0
aI0
aI0
aI0
aI0
aI0
aI0
aI0
aI0
aI0
aI0
aI0
aI0
aI0
aI0
aI0
aI0
aI0
aI0
aI0
aI0
aI0
aI0
aI0
aI0
aI0
aI0
aI0
aI0
aI0
aI0
aI0
aI0
aI0
aI0
aI0
aI0
aI0
aI0
aI0
aI0
aI0
aI0
aI0
aI0
aI0
aI0
aI0
aI0
aI0
aI0
aI0
aI0
aI0
aI0
aI0
aI0
aI0
aI0
aI0
aI0
aI0
aI0
aI0
aI0
aI0
aI0
aI0
aI0
aI0
aI0
aI0
aa(lp150
I0
aI0
aI0
aI0
aI0
aI0
aI0
aI0
aI0
aI0
aI0
aI0
aI0
aI0
aI0
aI0
aI0
aI0
aI0
aI0
aI0
aI0
aI0
aI0
aI0
aI0
aI0
aI0
aI0
aI0
aI0
aI0
aI0
aI0
aI0
aI0
aI0
aI0
aI0
aI0
aI0
aI0
aI0
aI0
aI0
aI0
aI0
aI0
aI0
aI0
aI0
aI0
aI0
aI0
aI0
aI0
aI0
aI0
aI0
aI0
aI0
aI0
aI0
aI0
aI0
aI0
aI0
aI0
aI0
aI0
aI0
aI0
aI0
aI0
aI0
aI0
aL4L
aI0
aI0
aI0
aI0
aI0
aI0
aI0
aI0
aI0
aI0
aI0
aI0
aI0
aI0
aI0
aI0
aI0
aI0
aI0
aI0
aI0
aI0
aI0
aI0
aI0
aI0
aI0
aI0
aI0
aI0
aI0
aI0
aI0
aI0
aI0
aI0
aI0
aa(lp151
I0
aI0
aI0
aI0
aI0
aI0
aI0
aI0
aI0
aI0
aI0
aI0
aI0
aI0
aI0
aI0
aI0
aI0
aI0
aI0
aI0
aI0
aI0
aI0
aI0
aI0
aI0
aI0
aI0
aI0
aI0
aI0
aI0
aI0
aI0
aI0
aI0
aI0
aI0
aI0
aI0
aI0
aI0
aI0
aI0
aI0
aI0
aI0
aI0
aI0
aI0
aI0
aI0
aI0
aI0
aI0
aI0
aI0
aI0
aI0
aI0
aI0
aI0
aI0
aI0
aI0
aI0
aI0
aI0
aI0
aI0
aI0
aI0
aI0
aI0
aI0
aI0
aI0
aI0
aI0
aI0
aI0
aI0
aI0
aI0
aI0
aI0
aI0
aI0
aI0
aI0
aI0
aI0
aI0
aI0
aI0
aI0
aI0
aI0
aI0
aI0
aI0
aI0
aI0
aI0
aI0
aI0
aI0
aI0
aI0
aI0
aI0
aI0
aI0
aa(lp152
I0
aI0
aI0
aI0
aI0
aI0
aI0
aI0
aI0
aI0
aI0
aI0
aI0
aI0
aI0
aI0
aI0
aI0
aI0
aI0
aI0
aI0
aI0
aI0
aI0
aI0
aI0
aI0
aI0
aI0
aI0
aI0
aI0
aI0
aI0
aI0
aI0
aI0
aI0
aI0
aI0
aI0
aI0
aI0
aI0
aI0
aI0
aI0
aI0
aI0
aI0
aI0
aI0
aI0
aI0
aI0
aI0
aI0
aI0
aI0
aI0
aI0
aI0
aI0
aI0
aI0
aI0
aI0
aI0
aI0
aI0
aI0
aI0
aI0
aI0
aI0
aI0
aI0
aI0
aI0
aI0
aI0
aI0
aI0
aI0
aI0
aI0
aI0
aI0
aI0
aI0
aI0
aI0
aI0
aI0
aI0
aI0
aI0
aI0
aI0
aI0
aI0
aI0
aI0
aI0
aI0
aI0
aI0
aI0
aI0
aI0
aI0
aI0
aI0
aa(lp153
I0
aI0
aI0
aI0
aI0
aI0
aI0
aI0
aI0
aI0
aI0
aI0
aI0
aI0
aI0
aI0
aI0
aI0
aI0
aI0
aI0
aI0
aI0
aI0
aI0
aI0
aI0
aI0
aI0
aI0
aI0
aI0
aI0
aI0
aI0
aI0
aI0
aI0
aI0
aI0
aI0
aI0
aI0
aI0
aI0
aI0
aI0
aI0
aI0
aI0
aI0
aI0
aI0
aI0
aI0
aI0
aI0
aI0
aI0
aI0
aI0
aI0
aI0
aI0
aI0
aI0
aI0
aI0
aI0
aI0
aI0
aI0
aI0
aI0
aI0
aI0
aI0
aI0
aI0
aI0
aI0
aI0
aI0
aI0
aI0
aI0
aI0
aI0
aI0
aI0
aI0
aI0
aI0
aI0
aI0
aI0
aI0
aI0
aI0
aI0
aI0
aI0
aI0
aI0
aI0
aI0
aI0
aI0
aI0
aI0
aI0
aI0
aI0
aI0
aa(lp154
I0
aI0
aI0
aI0
aI0
aI0
aI0
aI0
aI0
aI0
aI0
aI0
aI0
aI0
aI0
aI0
aI0
aI0
aI0
aI0
aI0
aI0
aI0
aI0
aI0
aI0
aI0
aI0
aI0
aI0
aI0
aI0
aI0
aI0
aI0
aI0
aI0
aI0
aI0
aI0
aI0
aI0
aI0
aI0
aI0
aI0
aI0
aI0
aI0
aI0
aI0
aI0
aI0
aI0
aI0
aI0
aI0
aI0
aI0
aI0
aI0
aI0
aI0
aI0
aI0
aI0
aI0
aI0
aI0
aI0
aI0
aI0
aI0
aI0
aI0
aI0
aI0
aI0
aI0
aI0
aI0
aI0
aI0
aI0
aI0
aI0
aI0
aI0
aI0
aI0
aI0
aI0
aI0
aI0
aI0
aI0
aI0
aI0
aI0
aI0
aI0
aI0
aI0
aI0
aI0
aI0
aI0
aI0
aI0
aI0
aI0
aI0
aI0
aI0
aa(lp155
I0
aI0
aI0
aI0
aI0
aI0
aI0
aI0
aI0
aI0
aI0
aI0
aI0
aI0
aI0
aI0
aI0
aI0
aI0
aI0
aI0
aI0
aI0
aI0
aI0
aI0
aI0
aI0
aI0
aI0
aI0
aI0
aI0
aI0
aI0
aI0
aI0
aI0
aI0
aI0
aI0
aI0
aI0
aI0
aI0
aI0
aI0
aI0
aI0
aI0
aI0
aI0
aI0
aI0
aI0
aI0
aI0
aI0
aI0
aI0
aI0
aI0
aI0
aI0
aI0
aI0
aI0
aI0
aI0
aI0
aI0
aI0
aI0
aI0
aI0
aI0
aI0
aI0
aI0
aI0
aI0
aI0
aI0
aI0
aI0
aI0
aI0
aI0
aI0
aI0
aI0
aI0
aI0
aI0
aI0
aI0
aI0
aI0
aI0
aI0
aI0
aI0
aI0
aI0
aI0
aI0
aI0
aI0
aI0
aI0
aI0
aI0
aI0
aI0
aa(lp156
I0
aI0
aI0
aI0
aI0
aI0
aI0
aI0
aI0
aI0
aI0
aI0
aI0
aI0
aI0
aI0
aI0
aI0
aI0
aI0
aI0
aI0
aI0
aI0
aI0
aI0
aI0
aI0
aI0
aI0
aI0
aI0
aI0
aI0
aI0
aI0
aI0
aI0
aI0
aI0
aI0
aI0
aI0
aI0
aI0
aI0
aI0
aI0
aI0
aI0
aI0
aI0
aI0
aI0
aI0
aI0
aI0
aI0
aI0
aI0
aI0
aI0
aI0
aI0
aI0
aI0
aI0
aI0
aI0
aI0
aI0
aI0
aI0
aI0
aI0
aI0
aI0
aI0
aI0
aI0
aI0
aI0
aI0
aI0
aI0
aI0
aI0
aI0
aI0
aI0
aI0
aI0
aI0
aI0
aI0
aI0
aI0
aI0
aI0
aI0
aI0
aI0
aI0
aI0
aI0
aI0
aI0
aI0
aI0
aI0
aI0
aI0
aI0
aI0
aa(lp157
I0
aI0
aI0
aI0
aI0
aI0
aI0
aI0
aI0
aI0
aI0
aI0
aI0
aI0
aI0
aI0
aI0
aI0
aI0
aI0
aI0
aI0
aI0
aI0
aI0
aI0
aI0
aI0
aI0
aI0
aI0
aI0
aI0
aI0
aI0
aI0
aI0
aI0
aI0
aI0
aI0
aI0
aI0
aI0
aI0
aI0
aI0
aI0
aI0
aI0
aI0
aI0
aI0
aI0
aI0
aI0
aI0
aI0
aI0
aI0
aI0
aI0
aI0
aI0
aI0
aI0
aI0
aI0
aI0
aI0
aI0
aI0
aI0
aI0
aI0
aI0
aI0
aI0
aI0
aI0
aI0
aI0
aI0
aI0
aI0
aI0
aI0
aI0
aI0
aI0
aI0
aI0
aI0
aI0
aI0
aI0
aI0
aI0
aI0
aI0
aI0
aI0
aI0
aI0
aI0
aI0
aI0
aI0
aI0
aI0
aI0
aI0
aI0
aI0
aa(lp158
I0
aI0
aI0
aI0
aI0
aI0
aI0
aI0
aI0
aI0
aI0
aI0
aI0
aI0
aI0
aI0
aI0
aI0
aI0
aI0
aI0
aI0
aI0
aI0
aI0
aI0
aI0
aI0
aI0
aI0
aI0
aI0
aI0
aI0
aI0
aI0
aI0
aI0
aI0
aI0
aI0
aI0
aI0
aI0
aI0
aI0
aI0
aI0
aI0
aI0
aI0
aI0
aI0
aI0
aI0
aI0
aI0
aI0
aI0
aI0
aI0
aI0
aI0
aI0
aI0
aI0
aI0
aI0
aI0
aI0
aI0
aI0
aI0
aI0
aI0
aI0
aI0
aI0
aI0
aI0
aI0
aI0
aI0
aI0
aI0
aI0
aI0
aI0
aI0
aI0
aI0
aI0
aI0
aI0
aI0
aI0
aI0
aI0
aI0
aI0
aI0
aI0
aI0
aI0
aI0
aI0
aI0
aI0
aI0
aI0
aI0
aI0
aI0
aI0
aa(lp159
I0
aI0
aI0
aI0
aI0
aI0
aI0
aI0
aI0
aI0
aI0
aI0
aI0
aI0
aI0
aI0
aI0
aI0
aI0
aI0
aI0
aI0
aI0
aI0
aI0
aI0
aI0
aI0
aI0
aI0
aI0
aI0
aI0
aI0
aI0
aI0
aI0
aI0
aI0
aI0
aI0
aI0
aI0
aI0
aI0
aI0
aI0
aI0
aI0
aI0
aI0
aI0
aI0
aI0
aI0
aI0
aI0
aI0
aI0
aI0
aI0
aI0
aI0
aI0
aI0
aI0
aI0
aI0
aI0
aI0
aI0
aI0
aI0
aI0
aI0
aI0
aI0
aI0
aI0
aI0
aI0
aI0
aI0
aI0
aI0
aI0
aI0
aI0
aI0
aI0
aI0
aI0
aI0
aI0
aI0
aI0
aI0
aI0
aI0
aI0
aI0
aI0
aI0
aI0
aI0
aI0
aI0
aI0
aI0
aI0
aI0
aI0
aI0
aI0
aa(lp160
I0
aI0
aI0
aI0
aI0
aI0
aI0
aI0
aI0
aI0
aI0
aI0
aI0
aI0
aI0
aI0
aI0
aI0
aI0
aI0
aI0
aI0
aI0
aI0
aI0
aI0
aI0
aI0
aI0
aI0
aI0
aI0
aI0
aI0
aI0
aI0
aI0
aI0
aI0
aI0
aI0
aI0
aI0
aI0
aI0
aI0
aI0
aI0
aI0
aI0
aI0
aI0
aI0
aI0
aI0
aI0
aI0
aI0
aI0
aI0
aI0
aI0
aI0
aI0
aI0
aI0
aI0
aI0
aI0
aI0
aI0
aI0
aI0
aI0
aI0
aI0
aI0
aI0
aI0
aI0
aI0
aI0
aI0
aI0
aI0
aI0
aI0
aI0
aI0
aI0
aI0
aI0
aI0
aI0
aI0
aI0
aI0
aI0
aI0
aI0
aI0
aI0
aI0
aI0
aI0
aI0
aI0
aI0
aI0
aI0
aI0
aI0
aI0
aI0
aa(lp161
I0
aI0
aI0
aI0
aI0
aI0
aI0
aI0
aI0
aI0
aI0
aI0
aI0
aI0
aI0
aI0
aI0
aI0
aI0
aI0
aI0
aI0
aI0
aI0
aI0
aI0
aI0
aI0
aI0
aI0
aI0
aI0
aI0
aI0
aI0
aI0
aI0
aI0
aI0
aI0
aI0
aI0
aI0
aI0
aI0
aI0
aI0
aI0
aI0
aI0
aI0
aI0
aI0
aI0
aI0
aI0
aI0
aI0
aI0
aI0
aI0
aI0
aI0
aI0
aI0
aI0
aI0
aI0
aI0
aI0
aI0
aI0
aI0
aI0
aI0
aI0
aI0
aI0
aI0
aI0
aI0
aI0
aI0
aI0
aI0
aI0
aI0
aI0
aI0
aI0
aI0
aI0
aI0
aI0
aI0
aI0
aI0
aI0
aI0
aI0
aI0
aI0
aI0
aI0
aI0
aI0
aI0
aI0
aI0
aI0
aI0
aI0
aI0
aI0
aa(lp162
I0
aI0
aI0
aI0
aI0
aI0
aI0
aI0
aI0
aI0
aI0
aI0
aI0
aI0
aI0
aI0
aI0
aI0
aI0
aI0
aI0
aI0
aI0
aI0
aI0
aI0
aI0
aI0
aI0
aI0
aI0
aI0
aI0
aI0
aI0
aI0
aI0
aI0
aI0
aI0
aI0
aI0
aI0
aI0
aI0
aI0
aI0
aI0
aI0
aI0
aI0
aI0
aI0
aI0
aI0
aI0
aI0
aI0
aI0
aI0
aI0
aI0
aI0
aI0
aI0
aI0
aI0
aI0
aI0
aI0
aI0
aI0
aI0
aI0
aI0
aI0
aI0
aI0
aI0
aI0
aI0
aI0
aI0
aI0
aI0
aI0
aI0
aI0
aI0
aI0
aI0
aI0
aI0
aI0
aI0
aI0
aI0
aI0
aI0
aI0
aI0
aI0
aI0
aI0
aI0
aI0
aI0
aI0
aI0
aI0
aI0
aI0
aI0
aI0
aa(lp163
I0
aI0
aI0
aI0
aI0
aI0
aI0
aI0
aI0
aI0
aI0
aI0
aI0
aI0
aI0
aI0
aI0
aI0
aI0
aI0
aI0
aI0
aI0
aI0
aI0
aI0
aI0
aI0
aI0
aI0
aI0
aI0
aI0
aI0
aI0
aI0
aI0
aI0
aI0
aI0
aI0
aI0
aI0
aI0
aI0
aI0
aI0
aI0
aI0
aI0
aI0
aI0
aI0
aI0
aI0
aI0
aI0
aI0
aI0
aI0
aI0
aI0
aI0
aI0
aI0
aI0
aI0
aI0
aI0
aI0
aI0
aI0
aI0
aI0
aI0
aI0
aI0
aI0
aI0
aI0
aI0
aI0
aI0
aI0
aI0
aI0
aI0
aI0
aI0
aI0
aI0
aI0
aI0
aI0
aI0
aI0
aI0
aI0
aI0
aI0
aI0
aI0
aI0
aI0
aI0
aI0
aI0
aI0
aI0
aI0
aI0
aI0
aI0
aI0
aa(lp164
I0
aI0
aI0
aI0
aI0
aI0
aI0
aI0
aI0
aI0
aI0
aI0
aI0
aI0
aI0
aI0
aI0
aI0
aI0
aI0
aI0
aI0
aI0
aI0
aI0
aI0
aI0
aI0
aI0
aI0
aI0
aI0
aI0
aI0
aI0
aI0
aI0
aI0
aI0
aI0
aI0
aI0
aI0
aI0
aI0
aI0
aI0
aI0
aI0
aI0
aI0
aI0
aI0
aI0
aI0
aI0
aI0
aI0
aI0
aI0
aI0
aI0
aI0
aI0
aI0
aI0
aI0
aI0
aI0
aI0
aI0
aI0
aI0
aI0
aI0
aI0
aI0
aI0
aI0
aI0
aI0
aI0
aI0
aI0
aI0
aI0
aI0
aI0
aI0
aI0
aI0
aI0
aI0
aI0
aI0
aI0
aI0
aI0
aI0
aI0
aI0
aI0
aI0
aI0
aI0
aI0
aI0
aI0
aI0
aI0
aI0
aI0
aI0
aI0
aa(lp165
I0
aI0
aI0
aI0
aI0
aI0
aI0
aI0
aI0
aI0
aI0
aI0
aI0
aI0
aI0
aI0
aI0
aI0
aI0
aI0
aI0
aI0
aI0
aI0
aI0
aI0
aI0
aI0
aI0
aI0
aI0
aI0
aI0
aI0
aI0
aI0
aI0
aI0
aI0
aI0
aI0
aI0
aI0
aI0
aI0
aI0
aI0
aI0
aI0
aI0
aI0
aI0
aI0
aI0
aI0
aI0
aI0
aI0
aI0
aI0
aI0
aI0
aI0
aI0
aI0
aI0
aI0
aI0
aI0
aI0
aI0
aI0
aI0
aI0
aI0
aI0
aI0
aI0
aI0
aI0
aI0
aI0
aI0
aI0
aI0
aI0
aI0
aI0
aI0
aI0
aI0
aI0
aI0
aI0
aI0
aI0
aI0
aI0
aI0
aI0
aI0
aI0
aI0
aI0
aI0
aI0
aI0
aI0
aI0
aI0
aI0
aI0
aI0
aI0
aa(lp166
I0
aI0
aI0
aI0
aI0
aI0
aI0
aI0
aI0
aI0
aI0
aI0
aI0
aI0
aI0
aI0
aI0
aI0
aI0
aI0
aI0
aI0
aI0
aI0
aI0
aI0
aI0
aI0
aI0
aI0
aI0
aI0
aI0
aI0
aI0
aI0
aI0
aI0
aI0
aI0
aI0
aI0
aI0
aI0
aI0
aI0
aI0
aI0
aI0
aI0
aI0
aI0
aI0
aI0
aI0
aI0
aI0
aI0
aI0
aI0
aI0
aI0
aI0
aI0
aI0
aI0
aI0
aI0
aI0
aI0
aI0
aI0
aI0
aI0
aI0
aI0
aI0
aI0
aI0
aI0
aI0
aI0
aI0
aI0
aI0
aI0
aI0
aI0
aI0
aI0
aI0
aI0
aI0
aI0
aI0
aI0
aI0
aI0
aI0
aI0
aI0
aI0
aI0
aI0
aI0
aI0
aI0
aI0
aI0
aI0
aI0
aI0
aI0
aI0
aa(lp167
I0
aI0
aI0
aI0
aI0
aI0
aI0
aI0
aI0
aI0
aI0
aI0
aI0
aI0
aI0
aI0
aI0
aI0
aI0
aI0
aI0
aI0
aI0
aI0
aI0
aI0
aI0
aI0
aI0
aI0
aI0
aI0
aI0
aI0
aI0
aI0
aI0
aI0
aI0
aI0
aI0
aI0
aI0
aI0
aI0
aI0
aI0
aI0
aI0
aI0
aI0
aI0
aI0
aI0
aI0
aI0
aI0
aI0
aI0
aI0
aI0
aI0
aI0
aI0
aI0
aI0
aI0
aI0
aI0
aI0
aI0
aI0
aI0
aI0
aI0
aI0
aI0
aI0
aI0
aI0
aI0
aI0
aI0
aI0
aI0
aI0
aI0
aI0
aI0
aI0
aI0
aI0
aI0
aI0
aI0
aI0
aI0
aI0
aI0
aI0
aI0
aI0
aI0
aI0
aI0
aI0
aI0
aI0
aI0
aI0
aI0
aI0
aI0
aI0
aa(lp168
I0
aI0
aI0
aI0
aI0
aI0
aI0
aI0
aI0
aI0
aI0
aI0
aI0
aI0
aI0
aI0
aI0
aI0
aI0
aI0
aI0
aI0
aI0
aI0
aI0
aI0
aI0
aI0
aI0
aI0
aI0
aI0
aI0
aI0
aI0
aI0
aI0
aI0
aI0
aI0
aI0
aI0
aI0
aI0
aI0
aI0
aI0
aI0
aI0
aI0
aI0
aI0
aI0
aI0
aI0
aI0
aI0
aI0
aI0
aI0
aI0
aI0
aI0
aI0
aI0
aI0
aI0
aI0
aI0
aI0
aI0
aI0
aI0
aI0
aI0
aI0
aI0
aI0
aI0
aI0
aI0
aI0
aI0
aI0
aI0
aI0
aI0
aI0
aI0
aI0
aI0
aI0
aI0
aI0
aI0
aI0
aI0
aI0
aI0
aI0
aI0
aI0
aI0
aI0
aI0
aI0
aI0
aI0
aI0
aI0
aI0
aI0
aI0
aI0
aa(lp169
I0
aI0
aI0
aI0
aI0
aI0
aI0
aI0
aI0
aI0
aI0
aI0
aI0
aI0
aI0
aI0
aI0
aI0
aI0
aI0
aI0
aI0
aI0
aI0
aI0
aI0
aI0
aI0
aI0
aI0
aI0
aI0
aI0
aI0
aI0
aI0
aI0
aI0
aI0
aI0
aI0
aI0
aI0
aI0
aI0
aI0
aI0
aI0
aI0
aI0
aI0
aI0
aI0
aI0
aI0
aI0
aI0
aI0
aI0
aI0
aI0
aI0
aI0
aI0
aI0
aI0
aI0
aI0
aI0
aI0
aI0
aI0
aI0
aI0
aI0
aI0
aI0
aI0
aI0
aI0
aI0
aI0
aI0
aI0
aI0
aI0
aI0
aI0
aI0
aI0
aI0
aI0
aI0
aI0
aI0
aI0
aI0
aI0
aI0
aI0
aI0
aI0
aI0
aI0
aI0
aI0
aI0
aI0
aI0
aI0
aI0
aI0
aI0
aI0
aa(lp170
I0
aI0
aI0
aI0
aI0
aI0
aI0
aI0
aI0
aI0
aI0
aI0
aI0
aI0
aI0
aI0
aI0
aI0
aI0
aI0
aI0
aI0
aI0
aI0
aI0
aI0
aI0
aI0
aI0
aI0
aI0
aI0
aI0
aI0
aI0
aI0
aI0
aI0
aI0
aI0
aI0
aI0
aI0
aI0
aI0
aI0
aI0
aI0
aI0
aI0
aI0
aI0
aI0
aI0
aI0
aI0
aI0
aI0
aI0
aI0
aI0
aI0
aI0
aI0
aI0
aI0
aI0
aI0
aI0
aI0
aI0
aI0
aI0
aI0
aI0
aI0
aI0
aI0
aI0
aI0
aI0
aI0
aI0
aI0
aI0
aI0
aI0
aI0
aI0
aI0
aI0
aI0
aI0
aI0
aI0
aI0
aI0
aI0
aI0
aI0
aI0
aI0
aI0
aI0
aI0
aI0
aI0
aI0
aI0
aI0
aI0
aI0
aI0
aI0
aa(lp171
I0
aI0
aI0
aI0
aI0
aI0
aI0
aI0
aI0
aI0
aI0
aI0
aI0
aI0
aI0
aI0
aI0
aI0
aI0
aI0
aI0
aI0
aI0
aI0
aI0
aI0
aI0
aI0
aI0
aI0
aI0
aI0
aI0
aI0
aI0
aI0
aI0
aI0
aI0
aI0
aI0
aI0
aI0
aI0
aI0
aI0
aI0
aI0
aI0
aI0
aI0
aI0
aI0
aI0
aI0
aI0
aI0
aI0
aI0
aI0
aI0
aI0
aI0
aI0
aI0
aI0
aI0
aI0
aI0
aI0
aI0
aI0
aI0
aI0
aI0
aI0
aI0
aI0
aI0
aI0
aI0
aI0
aI0
aI0
aI0
aI0
aI0
aI0
aI0
aI0
aI0
aI0
aI0
aI0
aI0
aI0
aI0
aI0
aI0
aI0
aI0
aI0
aI0
aI0
aI0
aI0
aI0
aI0
aI0
aI0
aI0
aI0
aI0
aI0
aa(lp172
I0
aI0
aI0
aI0
aI0
aI0
aI0
aI0
aI0
aI0
aI0
aI0
aI0
aI0
aI0
aI0
aI0
aI0
aI0
aI0
aI0
aI0
aI0
aI0
aI0
aI0
aI0
aI0
aI0
aI0
aI0
aI0
aI0
aI0
aI0
aI0
aI0
aI0
aI0
aI0
aI0
aI0
aI0
aI0
aI0
aI0
aI0
aI0
aI0
aI0
aI0
aI0
aI0
aI0
aI0
aI0
aI0
aI0
aI0
aI0
aI0
aI0
aI0
aI0
aI0
aI0
aI0
aI0
aI0
aI0
aI0
aI0
aI0
aI0
aI0
aI0
aI0
aI0
aI0
aI0
aI0
aI0
aI0
aI0
aI0
aI0
aI0
aI0
aI0
aI0
aI0
aI0
aI0
aI0
aI0
aI0
aI0
aI0
aI0
aI0
aI0
aI0
aI0
aI0
aI0
aI0
aI0
aI0
aI0
aI0
aI0
aI0
aI0
aI0
aa(lp173
I0
aI0
aI0
aI0
aI0
aI0
aI0
aI0
aI0
aI0
aI0
aI0
aI0
aI0
aI0
aI0
aI0
aI0
aI0
aI0
aI0
aI0
aI0
aI0
aI0
aI0
aI0
aI0
aI0
aI0
aI0
aI0
aI0
aI0
aI0
aI0
aI0
aI0
aI0
aI0
aI0
aI0
aI0
aI0
aI0
aI0
aI0
aI0
aI0
aI0
aI0
aI0
aI0
aI0
aI0
aI0
aI0
aI0
aI0
aI0
aI0
aI0
aI0
aI0
aI0
aI0
aI0
aI0
aI0
aI0
aI0
aI0
aI0
aI0
aI0
aI0
aI0
aI0
aI0
aI0
aI0
aI0
aI0
aI0
aI0
aI0
aI0
aI0
aI0
aI0
aI0
aI0
aI0
aI0
aI0
aI0
aI0
aI0
aI0
aI0
aI0
aI0
aI0
aI0
aI0
aI0
aI0
aI0
aI0
aI0
aI0
aI0
aI0
aI0
aa(lp174
I0
aI0
aI0
aI0
aI0
aI0
aI0
aI0
aI0
aI0
aI0
aI0
aI0
aI0
aI0
aI0
aI0
aI0
aI0
aI0
aI0
aI0
aI0
aI0
aI0
aI0
aI0
aI0
aI0
aI0
aI0
aI0
aI0
aI0
aI0
aI0
aI0
aI0
aI0
aI0
aI0
aI0
aI0
aI0
aI0
aI0
aI0
aI0
aI0
aI0
aI0
aI0
aI0
aI0
aI0
aI0
aI0
aI0
aI0
aI0
aI0
aI0
aI0
aI0
aI0
aI0
aI0
aI0
aI0
aI0
aI0
aI0
aI0
aI0
aI0
aI0
aI0
aI0
aI0
aI0
aI0
aI0
aI0
aI0
aI0
aI0
aI0
aI0
aI0
aI0
aI0
aI0
aI0
aI0
aI0
aI0
aI0
aI0
aI0
aI0
aI0
aI0
aI0
aI0
aI0
aI0
aI0
aI0
aI0
aI0
aI0
aI0
aI0
aI0
aa(lp175
I0
aI0
aI0
aI0
aI0
aI0
aI0
aI0
aI0
aI0
aI0
aI0
aI0
aI0
aI0
aI0
aI0
aI0
aI0
aI0
aI0
aI0
aI0
aI0
aI0
aI0
aI0
aI0
aI0
aI0
aI0
aI0
aI0
aI0
aI0
aI0
aI0
aI0
aI0
aI0
aI0
aI0
aI0
aI0
aI0
aI0
aI0
aI0
aI0
aI0
aI0
aI0
aI0
aI0
aI0
aI0
aI0
aI0
aI0
aI0
aI0
aI0
aI0
aI0
aI0
aI0
aI0
aI0
aI0
aI0
aI0
aI0
aI0
aI0
aI0
aI0
aI0
aI0
aI0
aI0
aI0
aI0
aI0
aI0
aI0
aI0
aI0
aI0
aI0
aI0
aI0
aI0
aI0
aI0
aI0
aI0
aI0
aI0
aI0
aI0
aI0
aI0
aI0
aI0
aI0
aI0
aI0
aI0
aI0
aI0
aI0
aI0
aI0
aI0
aa(lp176
I0
aI0
aI0
aI0
aI0
aI0
aI0
aI0
aI0
aI0
aI0
aI0
aI0
aI0
aI0
aI0
aI0
aI0
aI0
aI0
aI0
aI0
aI0
aI0
aI0
aI0
aI0
aI0
aI0
aI0
aI0
aI0
aI0
aI0
aI0
aI0
aI0
aI0
aI0
aI0
aI0
aI0
aI0
aI0
aI0
aI0
aI0
aI0
aI0
aI0
aI0
aI0
aI0
aI0
aI0
aI0
aI0
aI0
aI0
aI0
aI0
aI0
aI0
aI0
aI0
aI0
aI0
aI0
aI0
aI0
aI0
aI0
aI0
aI0
aI0
aI0
aI0
aI0
aI0
aI0
aI0
aI0
aI0
aI0
aI0
aI0
aI0
aI0
aI0
aI0
aI0
aI0
aI0
aI0
aI0
aI0
aI0
aI0
aI0
aI0
aI0
aI0
aI0
aI0
aI0
aI0
aI0
aI0
aI0
aI0
aI0
aI0
aI0
aI0
aa(lp177
I0
aI0
aI0
aI0
aI0
aI0
aI0
aI0
aI0
aI0
aI0
aI0
aI0
aI0
aI0
aI0
aI0
aI0
aI0
aI0
aI0
aI0
aI0
aI0
aI0
aI0
aI0
aI0
aI0
aI0
aI0
aI0
aI0
aI0
aI0
aI0
aI0
aI0
aI0
aI0
aI0
aI0
aI0
aI0
aI0
aI0
aI0
aI0
aI0
aI0
aI0
aI0
aI0
aI0
aI0
aI0
aI0
aI0
aI0
aI0
aI0
aI0
aI0
aI0
aI0
aI0
aI0
aI0
aI0
aI0
aI0
aI0
aI0
aI0
aI0
aI0
aI0
aI0
aI0
aI0
aI0
aI0
aI0
aI0
aI0
aI0
aI0
aI0
aI0
aI0
aI0
aI0
aI0
aI0
aI0
aI0
aI0
aI0
aI0
aI0
aI0
aI0
aI0
aI0
aI0
aI0
aI0
aI0
aI0
aI0
aI0
aI0
aI0
aI0
aa(lp178
I0
aI0
aI0
aI0
aI0
aI0
aI0
aI0
aI0
aI0
aI0
aI0
aI0
aI0
aI0
aI0
aI0
aI0
aI0
aI0
aI0
aI0
aI0
aI0
aI0
aI0
aI0
aI0
aI0
aI0
aI0
aI0
aI0
aI0
aI0
aI0
aI0
aI0
aI0
aI0
aI0
aI0
aI0
aI0
aI0
aI0
aI0
aI0
aI0
aI0
aI0
aI0
aI0
aI0
aI0
aI0
aI0
aI0
aI0
aI0
aI0
aI0
aI0
aI0
aI0
aI0
aI0
aI0
aI0
aI0
aI0
aI0
aI0
aI0
aI0
aI0
aI0
aI0
aI0
aI0
aI0
aI0
aI0
aI0
aI0
aI0
aI0
aI0
aI0
aI0
aI0
aI0
aI0
aI0
aI0
aI0
aI0
aI0
aI0
aI0
aI0
aI0
aI0
aI0
aI0
aI0
aI0
aI0
aI0
aI0
aI0
aI0
aI0
aI0
aa(lp179
I0
aI0
aI0
aI0
aI0
aI0
aI0
aI0
aI0
aI0
aI0
aI0
aI0
aI0
aI0
aI0
aI0
aI0
aI0
aI0
aI0
aI0
aI0
aI0
aI0
aI0
aI0
aI0
aI0
aI0
aI0
aI0
aI0
aI0
aI0
aI0
aI0
aI0
aI0
aI0
aI0
aI0
aI0
aI0
aI0
aI0
aI0
aI0
aI0
aI0
aI0
aI0
aI0
aI0
aI0
aI0
aI0
aI0
aI0
aI0
aI0
aI0
aI0
aI0
aI0
aI0
aI0
aI0
aI0
aI0
aI0
aI0
aI0
aI0
aI0
aI0
aI0
aI0
aI0
aI0
aI0
aI0
aI0
aI0
aI0
aI0
aI0
aI0
aI0
aI0
aI0
aI0
aI0
aI0
aI0
aI0
aI0
aI0
aI0
aI0
aI0
aI0
aI0
aI0
aI0
aI0
aI0
aI0
aI0
aI0
aI0
aI0
aI0
aI0
aa(lp180
I0
aI0
aI0
aI0
aI0
aI0
aI0
aI0
aI0
aI0
aI0
aI0
aI0
aI0
aI0
aI0
aI0
aI0
aI0
aI0
aI0
aI0
aI0
aI0
aI0
aI0
aI0
aI0
aI0
aI0
aI0
aI0
aI0
aI0
aI0
aI0
aI0
aI0
aI0
aI0
aI0
aI0
aI0
aI0
aI0
aI0
aI0
aI0
aI0
aI0
aI0
aI0
aI0
aI0
aI0
aI0
aI0
aI0
aI0
aI0
aI0
aI0
aI0
aI0
aI0
aI0
aI0
aI0
aI0
aI0
aI0
aI0
aI0
aI0
aI0
aI0
aI0
aI0
aI0
aI0
aI0
aI0
aI0
aI0
aI0
aI0
aI0
aI0
aI0
aI0
aI0
aI0
aI0
aI0
aI0
aI0
aI0
aI0
aI0
aI0
aI0
aI0
aI0
aI0
aI0
aI0
aI0
aI0
aI0
aI0
aI0
aI0
aI0
aI0
aa(lp181
I0
aI0
aI0
aI0
aI0
aI0
aI0
aI0
aI0
aI0
aI0
aI0
aI0
aI0
aI0
aI0
aI0
aI0
aI0
aI0
aI0
aI0
aI0
aI0
aI0
aI0
aI0
aI0
aI0
aI0
aI0
aI0
aI0
aI0
aI0
aI0
aI0
aI0
aI0
aI0
aI0
aI0
aI0
aI0
aI0
aI0
aI0
aI0
aI0
aI0
aI0
aI0
aI0
aI0
aI0
aI0
aI0
aI0
aI0
aI0
aI0
aI0
aI0
aI0
aI0
aI0
aI0
aI0
aI0
aI0
aI0
aI0
aI0
aI0
aI0
aI0
aI0
aI0
aI0
aI0
aI0
aI0
aI0
aI0
aI0
aI0
aI0
aI0
aI0
aI0
aI0
aI0
aI0
aI0
aI0
aI0
aI0
aI0
aI0
aI0
aI0
aI0
aI0
aI0
aI0
aI0
aI0
aI0
aI0
aI0
aI0
aI0
aI0
aI0
aa(lp182
I0
aI0
aI0
aI0
aI0
aI0
aI0
aI0
aI0
aI0
aI0
aI0
aI0
aI0
aI0
aI0
aI0
aI0
aI0
aI0
aI0
aI0
aI0
aI0
aI0
aI0
aI0
aI0
aI0
aI0
aI0
aI0
aI0
aI0
aI0
aI0
aI0
aI0
aI0
aI0
aI0
aI0
aI0
aI0
aI0
aI0
aI0
aI0
aI0
aI0
aI0
aI0
aI0
aI0
aI0
aI0
aI0
aI0
aI0
aI0
aI0
aI0
aI0
aI0
aI0
aI0
aI0
aI0
aI0
aI0
aI0
aI0
aI0
aI0
aI0
aI0
aI0
aI0
aI0
aI0
aI0
aI0
aI0
aI0
aI0
aI0
aI0
aI0
aI0
aI0
aI0
aI0
aI0
aI0
aI0
aI0
aI0
aI0
aI0
aI0
aI0
aI0
aI0
aI0
aI0
aI0
aI0
aI0
aI0
aI0
aI0
aI0
aI0
aI0
aa(lp183
I0
aI0
aI0
aI0
aI0
aI0
aI0
aI0
aI0
aI0
aI0
aI0
aI0
aI0
aI0
aI0
aI0
aI0
aI0
aI0
aI0
aI0
aI0
aI0
aI0
aI0
aI0
aI0
aI0
aI0
aI0
aI0
aI0
aI0
aI0
aI0
aI0
aI0
aI0
aI0
aI0
aI0
aI0
aI0
aI0
aI0
aI0
aI0
aI0
aI0
aI0
aI0
aI0
aI0
aI0
aI0
aI0
aI0
aI0
aI0
aI0
aI0
aI0
aI0
aI0
aI0
aI0
aI0
aI0
aI0
aI0
aI0
aI0
aI0
aI0
aI0
aI0
aI0
aI0
aI0
aI0
aI0
aI0
aI0
aI0
aI0
aI0
aI0
aI0
aI0
aI0
aI0
aI0
aI0
aI0
aI0
aI0
aI0
aI0
aI0
aI0
aI0
aI0
aI0
aI0
aI0
aI0
aI0
aI0
aI0
aI0
aI0
aI0
aI0
aa(lp184
I0
aI0
aI0
aI0
aI0
aI0
aI0
aI0
aI0
aI0
aI0
aI0
aI0
aI0
aI0
aI0
aI0
aI0
aI0
aI0
aI0
aI0
aI0
aI0
aI0
aI0
aI0
aI0
aI0
aI0
aI0
aI0
aI0
aI0
aI0
aI0
aI0
aI0
aI0
aI0
aI0
aI0
aI0
aI0
aI0
aI0
aI0
aI0
aI0
aI0
aI0
aI0
aI0
aI0
aI0
aI0
aI0
aI0
aI0
aI0
aI0
aI0
aI0
aI0
aI0
aI0
aI0
aI0
aI0
aI0
aI0
aI0
aI0
aI0
aI0
aI0
aI0
aI0
aI0
aI0
aI0
aI0
aI0
aI0
aI0
aI0
aI0
aI0
aI0
aI0
aI0
aI0
aI0
aI0
aI0
aI0
aI0
aI0
aI0
aI0
aI0
aI0
aI0
aI0
aI0
aI0
aI0
aI0
aI0
aI0
aI0
aI0
aI0
aI0
aa(lp185
I0
aI0
aI0
aI0
aI0
aI0
aI0
aI0
aI0
aI0
aI0
aI0
aI0
aI0
aI0
aI0
aI0
aI0
aI0
aI0
aI0
aI0
aI0
aI0
aI0
aI0
aI0
aI0
aI0
aI0
aI0
aI0
aI0
aI0
aI0
aI0
aI0
aI0
aI0
aI0
aI0
aI0
aI0
aI0
aI0
aI0
aI0
aI0
aI0
aI0
aI0
aI0
aI0
aI0
aI0
aI0
aI0
aI0
aI0
aI0
aI0
aI0
aI0
aI0
aI0
aI0
aI0
aI0
aI0
aI0
aI0
aI0
aI0
aI0
aI0
aI0
aI0
aI0
aI0
aI0
aI0
aI0
aI0
aI0
aI0
aI0
aI0
aI0
aI0
aI0
aI0
aI0
aI0
aI0
aI0
aI0
aI0
aI0
aI0
aI0
aI0
aI0
aI0
aI0
aI0
aI0
aI0
aI0
aI0
aI0
aI0
aI0
aI0
aI0
aa(lp186
I0
aI0
aI0
aI0
aI0
aI0
aI0
aI0
aI0
aI0
aI0
aI0
aI0
aI0
aI0
aI0
aI0
aI0
aI0
aI0
aI0
aI0
aI0
aI0
aI0
aI0
aI0
aI0
aI0
aI0
aI0
aI0
aI0
aI0
aI0
aI0
aI0
aI0
aI0
aI0
aI0
aI0
aI0
aI0
aI0
aI0
aI0
aI0
aI0
aI0
aI0
aI0
aI0
aI0
aI0
aI0
aI0
aI0
aI0
aI0
aI0
aI0
aI0
aI0
aI0
aI0
aI0
aI0
aI0
aI0
aI0
aI0
aI0
aI0
aI0
aI0
aI0
aI0
aI0
aI0
aI0
aI0
aI0
aI0
aI0
aI0
aI0
aI0
aI0
aI0
aI0
aI0
aI0
aI0
aI0
aI0
aI0
aI0
aI0
aI0
aI0
aI0
aI0
aI0
aI0
aI0
aI0
aI0
aI0
aI0
aI0
aI0
aI0
aI0
aa(lp187
I0
aI0
aI0
aI0
aI0
aI0
aI0
aI0
aI0
aI0
aI0
aI0
aI0
aI0
aI0
aI0
aI0
aI0
aI0
aI0
aI0
aI0
aI0
aI0
aI0
aI0
aI0
aI0
aI0
aI0
aI0
aI0
aI0
aI0
aI0
aI0
aI0
aI0
aI0
aI0
aI0
aI0
aI0
aI0
aI0
aI0
aI0
aI0
aI0
aI0
aI0
aI0
aI0
aI0
aI0
aI0
aI0
aI0
aI0
aI0
aI0
aI0
aI0
aI0
aI0
aI0
aI0
aI0
aI0
aI0
aI0
aI0
aI0
aI0
aI0
aI0
aI0
aI0
aI0
aI0
aI0
aI0
aI0
aI0
aI0
aI0
aI0
aI0
aI0
aI0
aI0
aI0
aI0
aI0
aI0
aI0
aI0
aI0
aI0
aI0
aI0
aI0
aI0
aI0
aI0
aI0
aI0
aI0
aI0
aI0
aI0
aI0
aI0
aI0
aa(lp188
I0
aI0
aI0
aI0
aI0
aI0
aI0
aI0
aI0
aI0
aI0
aI0
aI0
aI0
aI0
aI0
aI0
aI0
aI0
aI0
aI0
aI0
aI0
aI0
aI0
aI0
aI0
aI0
aI0
aI0
aI0
aI0
aI0
aI0
aI0
aI0
aI0
aI0
aI0
aI0
aI0
aI0
aI0
aI0
aI0
aI0
aI0
aI0
aI0
aI0
aI0
aI0
aI0
aI0
aI0
aI0
aI0
aI0
aI0
aI0
aI0
aI0
aI0
aI0
aI0
aI0
aI0
aI0
aI0
aI0
aI0
aI0
aI0
aI0
aI0
aI0
aI0
aI0
aI0
aI0
aI0
aI0
aI0
aI0
aI0
aI0
aI0
aI0
aI0
aI0
aI0
aI0
aI0
aI0
aI0
aI0
aI0
aI0
aI0
aI0
aI0
aI0
aI0
aI0
aI0
aI0
aI0
aI0
aI0
aI0
aI0
aI0
aI0
aI0
aa(lp189
I0
aI0
aI0
aI0
aI0
aI0
aI0
aI0
aI0
aI0
aI0
aI0
aI0
aI0
aI0
aI0
aI0
aI0
aI0
aI0
aI0
aI0
aI0
aI0
aI0
aI0
aI0
aI0
aI0
aI0
aI0
aI0
aI0
aI0
aI0
aI0
aI0
aI0
aI0
aI0
aI0
aI0
aI0
aI0
aI0
aI0
aI0
aI0
aI0
aI0
aI0
aI0
aI0
aI0
aI0
aI0
aI0
aI0
aI0
aI0
aI0
aI0
aI0
aI0
aI0
aI0
aI0
aI0
aI0
aI0
aI0
aI0
aI0
aI0
aI0
aI0
aI0
aI0
aI0
aI0
aI0
aI0
aI0
aI0
aI0
aI0
aI0
aI0
aI0
aI0
aI0
aI0
aI0
aI0
aI0
aI0
aI0
aI0
aI0
aI0
aI0
aI0
aI0
aI0
aI0
aI0
aI0
aI0
aI0
aI0
aI0
aI0
aI0
aI0
aa(lp190
I0
aI0
aI0
aI0
aI0
aI0
aI0
aI0
aI0
aI0
aI0
aI0
aI0
aI0
aI0
aI0
aI0
aI0
aI0
aI0
aI0
aI0
aI0
aI0
aI0
aI0
aI0
aI0
aI0
aI0
aI0
aI0
aI0
aI0
aI0
aI0
aI0
aI0
aI0
aI0
aI0
aI0
aI0
aI0
aI0
aI0
aI0
aI0
aI0
aI0
aI0
aI0
aI0
aI0
aI0
aI0
aI0
aI0
aI0
aI0
aI0
aI0
aI0
aI0
aI0
aI0
aI0
aI0
aI0
aI0
aI0
aI0
aI0
aI0
aI0
aI0
aI0
aI0
aI0
aI0
aI0
aI0
aI0
aI0
aI0
aI0
aI0
aI0
aI0
aI0
aI0
aI0
aI0
aI0
aI0
aI0
aI0
aI0
aI0
aI0
aI0
aI0
aI0
aI0
aI0
aI0
aI0
aI0
aI0
aI0
aI0
aI0
aI0
aI0
aa(lp191
I0
aI0
aI0
aI0
aI0
aI0
aI0
aI0
aI0
aI0
aI0
aI0
aI0
aI0
aI0
aI0
aI0
aI0
aI0
aI0
aI0
aI0
aI0
aI0
aI0
aI0
aI0
aI0
aI0
aI0
aI0
aI0
aI0
aI0
aI0
aI0
aI0
aI0
aI0
aI0
aI0
aI0
aI0
aI0
aI0
aI0
aI0
aI0
aI0
aI0
aI0
aI0
aI0
aI0
aI0
aI0
aI0
aI0
aI0
aI0
aI0
aI0
aI0
aI0
aI0
aI0
aI0
aI0
aI0
aI0
aI0
aI0
aI0
aI0
aI0
aI0
aI0
aI0
aI0
aI0
aI0
aI0
aI0
aI0
aI0
aI0
aI0
aI0
aI0
aI0
aI0
aI0
aI0
aI0
aI0
aI0
aI0
aI0
aI0
aI0
aI0
aI0
aI0
aI0
aI0
aI0
aI0
aI0
aI0
aI0
aI0
aI0
aI0
aI0
aa(lp192
I0
aI0
aI0
aI0
aI0
aI0
aI0
aI0
aI0
aI0
aI0
aI0
aI0
aI0
aI0
aI0
aI0
aI0
aI0
aI0
aI0
aI0
aI0
aI0
aI0
aI0
aI0
aI0
aI0
aI0
aI0
aI0
aI0
aI0
aI0
aI0
aI0
aI0
aI0
aI0
aI0
aI0
aI0
aI0
aI0
aI0
aI0
aI0
aI0
aI0
aI0
aI0
aI0
aI0
aI0
aI0
aI0
aI0
aI0
aI0
aI0
aI0
aI0
aI0
aI0
aI0
aI0
aI0
aI0
aI0
aI0
aI0
aI0
aI0
aI0
aI0
aI0
aI0
aI0
aI0
aI0
aI0
aI0
aI0
aI0
aI0
aI0
aI0
aI0
aI0
aI0
aI0
aI0
aI0
aI0
aI0
aI0
aI0
aI0
aI0
aI0
aI0
aI0
aI0
aI0
aI0
aI0
aI0
aI0
aI0
aI0
aI0
aI0
aI0
aa(lp193
I0
aI0
aI0
aI0
aI0
aI0
aI0
aI0
aI0
aI0
aI0
aI0
aI0
aI0
aI0
aI0
aI0
aI0
aI0
aI0
aI0
aI0
aI0
aI0
aI0
aI0
aI0
aI0
aI0
aI0
aI0
aI0
aI0
aI0
aI0
aI0
aI0
aI0
aI0
aI0
aI0
aI0
aI0
aI0
aI0
aI0
aI0
aI0
aI0
aI0
aI0
aI0
aI0
aI0
aI0
aI0
aI0
aI0
aI0
aI0
aI0
aI0
aI0
aI0
aI0
aI0
aI0
aI0
aI0
aI0
aI0
aI0
aI0
aI0
aI0
aI0
aI0
aI0
aI0
aI0
aI0
aI0
aI0
aI0
aI0
aI0
aI0
aI0
aI0
aI0
aI0
aI0
aI0
aI0
aI0
aI0
aI0
aI0
aI0
aI0
aI0
aI0
aI0
aI0
aI0
aI0
aI0
aI0
aI0
aI0
aI0
aI0
aI0
aI0
aa(lp194
I0
aI0
aI0
aI0
aI0
aI0
aI0
aI0
aI0
aI0
aI0
aI0
aI0
aI0
aI0
aI0
aI0
aI0
aI0
aI0
aI0
aI0
aI0
aI0
aI0
aI0
aI0
aI0
aI0
aI0
aI0
aI0
aI0
aI0
aI0
aI0
aI0
aI0
aI0
aI0
aI0
aI0
aI0
aI0
aI0
aI0
aI0
aI0
aI0
aI0
aI0
aI0
aI0
aI0
aI0
aI0
aI0
aI0
aI0
aI0
aI0
aI0
aI0
aI0
aI0
aI0
aI0
aI0
aI0
aI0
aI0
aI0
aI0
aI0
aI0
aI0
aI0
aI0
aI0
aI0
aI0
aI0
aI0
aI0
aI0
aI0
aI0
aI0
aI0
aI0
aI0
aI0
aI0
aI0
aI0
aI0
aI0
aI0
aI0
aI0
aI0
aI0
aI0
aI0
aI0
aI0
aI0
aI0
aI0
aI0
aI0
aI0
aI0
aI0
aa(lp195
I0
aI0
aI0
aI0
aI0
aI0
aI0
aI0
aI0
aI0
aI0
aI0
aI0
aI0
aI0
aI0
aI0
aI0
aI0
aI0
aI0
aI0
aI0
aI0
aI0
aI0
aI0
aI0
aI0
aI0
aI0
aI0
aI0
aI0
aI0
aI0
aI0
aI0
aI0
aI0
aI0
aI0
aI0
aI0
aI0
aI0
aI0
aI0
aI0
aI0
aI0
aI0
aI0
aI0
aI0
aI0
aI0
aI0
aI0
aI0
aI0
aI0
aI0
aI0
aI0
aI0
aI0
aI0
aI0
aI0
aI0
aI0
aI0
aI0
aI0
aI0
aI0
aI0
aI0
aI0
aI0
aI0
aI0
aI0
aI0
aI0
aI0
aI0
aI0
aI0
aI0
aI0
aI0
aI0
aI0
aI0
aI0
aI0
aI0
aI0
aI0
aI0
aI0
aI0
aI0
aI0
aI0
aI0
aI0
aI0
aI0
aI0
aI0
aI0
aa(lp196
I0
aI0
aI0
aI0
aI0
aI0
aI0
aI0
aI0
aI0
aI0
aI0
aI0
aI0
aI0
aI0
aI0
aI0
aI0
aI0
aI0
aI0
aI0
aI0
aI0
aI0
aI0
aI0
aI0
aI0
aI0
aI0
aI0
aI0
aI0
aI0
aI0
aI0
aI0
aI0
aI0
aI0
aI0
aI0
aI0
aI0
aI0
aI0
aI0
aI0
aI0
aI0
aI0
aI0
aI0
aI0
aI0
aI0
aI0
aI0
aI0
aI0
aI0
aI0
aI0
aI0
aI0
aI0
aI0
aI0
aI0
aI0
aI0
aI0
aI0
aI0
aI0
aI0
aI0
aI0
aI0
aI0
aI0
aI0
aI0
aI0
aI0
aI0
aI0
aI0
aI0
aI0
aI0
aI0
aI0
aI0
aI0
aI0
aI0
aI0
aI0
aI0
aI0
aI0
aI0
aI0
aI0
aI0
aI0
aI0
aI0
aI0
aI0
aI0
aa(lp197
I0
aI0
aI0
aI0
aI0
aI0
aI0
aI0
aI0
aI0
aI0
aI0
aI0
aI0
aI0
aI0
aI0
aI0
aI0
aI0
aI0
aI0
aI0
aI0
aI0
aI0
aI0
aI0
aI0
aI0
aI0
aI0
aI0
aI0
aI0
aI0
aI0
aI0
aI0
aI0
aI0
aI0
aI0
aI0
aI0
aI0
aI0
aI0
aI0
aI0
aI0
aI0
aI0
aI0
aI0
aI0
aI0
aI0
aI0
aI0
aI0
aI0
aI0
aI0
aI0
aI0
aI0
aI0
aI0
aI0
aI0
aI0
aI0
aI0
aI0
aI0
aI0
aI0
aI0
aI0
aI0
aI0
aI0
aI0
aI0
aI0
aI0
aI0
aI0
aI0
aI0
aI0
aI0
aI0
aI0
aI0
aI0
aI0
aI0
aI0
aI0
aI0
aI0
aI0
aI0
aI0
aI0
aI0
aI0
aI0
aI0
aI0
aI0
aI0
aa(lp198
I0
aI0
aI0
aI0
aI0
aI0
aI0
aI0
aI0
aI0
aI0
aI0
aI0
aI0
aI0
aI0
aI0
aI0
aI0
aI0
aI0
aI0
aI0
aI0
aI0
aI0
aI0
aI0
aI0
aI0
aI0
aI0
aI0
aI0
aI0
aI0
aI0
aI0
aI0
aI0
aI0
aI0
aI0
aI0
aI0
aI0
aI0
aI0
aI0
aI0
aI0
aI0
aI0
aI0
aI0
aI0
aI0
aI0
aI0
aI0
aI0
aI0
aI0
aI0
aI0
aI0
aI0
aI0
aI0
aI0
aI0
aI0
aI0
aI0
aI0
aI0
aI0
aI0
aI0
aI0
aI0
aI0
aI0
aI0
aI0
aI0
aI0
aI0
aI0
aI0
aI0
aI0
aI0
aI0
aI0
aI0
aI0
aI0
aI0
aI0
aI0
aI0
aI0
aI0
aI0
aI0
aI0
aI0
aI0
aI0
aI0
aI0
aI0
aI0
aa(lp199
I0
aI0
aI0
aI0
aI0
aI0
aI0
aI0
aI0
aI0
aI0
aI0
aI0
aI0
aI0
aI0
aI0
aI0
aI0
aI0
aI0
aI0
aI0
aI0
aI0
aI0
aI0
aI0
aI0
aI0
aI0
aI0
aI0
aI0
aI0
aI0
aI0
aI0
aI0
aI0
aI0
aI0
aI0
aI0
aI0
aI0
aI0
aI0
aI0
aI0
aI0
aI0
aI0
aI0
aI0
aI0
aI0
aI0
aI0
aI0
aI0
aI0
aI0
aI0
aI0
aI0
aI0
aI0
aI0
aI0
aI0
aI0
aI0
aI0
aI0
aI0
aI0
aI0
aI0
aI0
aI0
aI0
aI0
aI0
aI0
aI0
aI0
aI0
aI0
aI0
aI0
aI0
aI0
aI0
aI0
aI0
aI0
aI0
aI0
aI0
aI0
aI0
aI0
aI0
aI0
aI0
aI0
aI0
aI0
aI0
aI0
aI0
aI0
aI0
aa(lp200
I0
aI0
aI0
aI0
aI0
aI0
aI0
aI0
aI0
aI0
aI0
aI0
aI0
aI0
aI0
aI0
aI0
aI0
aI0
aI0
aI0
aI0
aI0
aI0
aI0
aI0
aI0
aI0
aI0
aI0
aI0
aI0
aI0
aI0
aI0
aI0
aI0
aI0
aI0
aI0
aI0
aI0
aI0
aI0
aI0
aI0
aI0
aI0
aI0
aI0
aI0
aI0
aI0
aI0
aI0
aI0
aI0
aI0
aI0
aI0
aI0
aI0
aI0
aI0
aI0
aI0
aI0
aI0
aI0
aI0
aI0
aI0
aI0
aI0
aI0
aI0
aI0
aI0
aI0
aI0
aI0
aI0
aI0
aI0
aI0
aI0
aI0
aI0
aI0
aI0
aI0
aI0
aI0
aI0
aI0
aI0
aI0
aI0
aI0
aI0
aI0
aI0
aI0
aI0
aI0
aI0
aI0
aI0
aI0
aI0
aI0
aI0
aI0
aI0
aa(lp201
I0
aI0
aI0
aI0
aI0
aI0
aI0
aI0
aI0
aI0
aI0
aI0
aI0
aI0
aI0
aI0
aI0
aI0
aI0
aI0
aI0
aI0
aI0
aI0
aI0
aI0
aI0
aI0
aI0
aI0
aI0
aI0
aI0
aI0
aI0
aI0
aI0
aI0
aI0
aI0
aI0
aI0
aI0
aI0
aI0
aI0
aI0
aI0
aI0
aI0
aI0
aI0
aI0
aI0
aI0
aI0
aI0
aI0
aI0
aI0
aI0
aI0
aI0
aI0
aI0
aI0
aI0
aI0
aI0
aI0
aI0
aI0
aI0
aI0
aI0
aI0
aI0
aI0
aI0
aI0
aI0
aI0
aI0
aI0
aI0
aI0
aI0
aI0
aI0
aI0
aI0
aI0
aI0
aI0
aI0
aI0
aI0
aI0
aI0
aI0
aI0
aI0
aI0
aI0
aI0
aI0
aI0
aI0
aI0
aI0
aI0
aI0
aI0
aI0
aa(lp202
I0
aI0
aI0
aI0
aI0
aI0
aI0
aI0
aI0
aI0
aI0
aI0
aI0
aI0
aI0
aI0
aI0
aI0
aI0
aI0
aI0
aI0
aI0
aI0
aI0
aI0
aI0
aI0
aI0
aI0
aI0
aI0
aI0
aI0
aI0
aI0
aI0
aI0
aI0
aI0
aI0
aI0
aI0
aI0
aI0
aI0
aI0
aI0
aI0
aI0
aI0
aI0
aI0
aI0
aI0
aI0
aI0
aI0
aI0
aI0
aI0
aI0
aI0
aI0
aI0
aI0
aI0
aI0
aI0
aI0
aI0
aI0
aI0
aI0
aI0
aI0
aI0
aI0
aI0
aI0
aI0
aI0
aI0
aI0
aI0
aI0
aI0
aI0
aI0
aI0
aI0
aI0
aI0
aI0
aI0
aI0
aI0
aI0
aI0
aI0
aI0
aI0
aI0
aI0
aI0
aI0
aI0
aI0
aI0
aI0
aI0
aI0
aI0
aI0
aa(lp203
I0
aI0
aI0
aI0
aI0
aI0
aI0
aI0
aI0
aI0
aI0
aI0
aI0
aI0
aI0
aI0
aI0
aI0
aI0
aI0
aI0
aI0
aI0
aI0
aI0
aI0
aI0
aI0
aI0
aI0
aI0
aI0
aI0
aI0
aI0
aI0
aI0
aI0
aI0
aI0
aI0
aI0
aI0
aI0
aI0
aI0
aI0
aI0
aI0
aI0
aI0
aI0
aI0
aI0
aI0
aI0
aI0
aI0
aI0
aI0
aI0
aI0
aI0
aI0
aI0
aI0
aI0
aI0
aI0
aI0
aI0
aI0
aI0
aI0
aI0
aI0
aI0
aI0
aI0
aI0
aI0
aI0
aI0
aI0
aI0
aI0
aI0
aI0
aI0
aI0
aI0
aI0
aI0
aI0
aI0
aI0
aI0
aI0
aI0
aI0
aI0
aI0
aI0
aI0
aI0
aI0
aI0
aI0
aI0
aI0
aI0
aI0
aI0
aI0
aa(lp204
I0
aI0
aI0
aI0
aI0
aI0
aI0
aI0
aI0
aI0
aI0
aI0
aI0
aI0
aI0
aI0
aI0
aI0
aI0
aI0
aI0
aI0
aI0
aI0
aI0
aI0
aI0
aI0
aI0
aI0
aI0
aI0
aI0
aI0
aI0
aI0
aI0
aI0
aI0
aI0
aI0
aI0
aI0
aI0
aI0
aI0
aI0
aI0
aI0
aI0
aI0
aI0
aI0
aI0
aI0
aI0
aI0
aI0
aI0
aI0
aI0
aI0
aI0
aI0
aI0
aI0
aI0
aI0
aI0
aI0
aI0
aI0
aI0
aI0
aI0
aI0
aI0
aI0
aI0
aI0
aI0
aI0
aI0
aI0
aI0
aI0
aI0
aI0
aI0
aI0
aI0
aI0
aI0
aI0
aI0
aI0
aI0
aI0
aI0
aI0
aI0
aI0
aI0
aI0
aI0
aI0
aI0
aI0
aI0
aI0
aI0
aI0
aI0
aI0
aa(lp205
I0
aI0
aI0
aI0
aI0
aI0
aI0
aI0
aI0
aI0
aI0
aI0
aI0
aI0
aI0
aI0
aI0
aI0
aI0
aI0
aI0
aI0
aI0
aI0
aI0
aI0
aI0
aI0
aI0
aI0
aI0
aI0
aI0
aI0
aI0
aI0
aI0
aI0
aI0
aI0
aI0
aI0
aI0
aI0
aI0
aI0
aI0
aI0
aI0
aI0
aI0
aI0
aI0
aI0
aI0
aI0
aI0
aI0
aI0
aI0
aI0
aI0
aI0
aI0
aI0
aI0
aI0
aI0
aI0
aI0
aI0
aI0
aI0
aI0
aI0
aI0
aI0
aI0
aI0
aI0
aI0
aI0
aI0
aI0
aI0
aI0
aI0
aI0
aI0
aI0
aI0
aI0
aI0
aI0
aI0
aI0
aI0
aI0
aI0
aI0
aI0
aI0
aI0
aI0
aI0
aI0
aI0
aI0
aI0
aI0
aI0
aI0
aI0
aI0
aa(lp206
I0
aI0
aI0
aI0
aI0
aI0
aI0
aI0
aI0
aI0
aI0
aI0
aI0
aI0
aI0
aI0
aI0
aI0
aI0
aI0
aI0
aI0
aI0
aI0
aI0
aI0
aI0
aI0
aI0
aI0
aI0
aI0
aI0
aI0
aI0
aI0
aI0
aI0
aI0
aI0
aI0
aI0
aI0
aI0
aI0
aI0
aI0
aI0
aI0
aI0
aI0
aI0
aI0
aI0
aI0
aI0
aI0
aI0
aI0
aI0
aI0
aI0
aI0
aI0
aI0
aI0
aI0
aI0
aI0
aI0
aI0
aI0
aI0
aI0
aI0
aI0
aI0
aI0
aI0
aI0
aI0
aI0
aI0
aI0
aI0
aI0
aI0
aI0
aI0
aI0
aI0
aI0
aI0
aI0
aI0
aI0
aI0
aI0
aI0
aI0
aI0
aI0
aI0
aI0
aI0
aI0
aI0
aI0
aI0
aI0
aI0
aI0
aI0
aI0
aa(lp207
I0
aI0
aI0
aI0
aI0
aI0
aI0
aI0
aI0
aI0
aI0
aI0
aI0
aI0
aI0
aI0
aI0
aI0
aI0
aI0
aI0
aI0
aI0
aI0
aI0
aI0
aI0
aI0
aI0
aI0
aI0
aI0
aI0
aI0
aI0
aI0
aI0
aI0
aI0
aI0
aI0
aI0
aI0
aI0
aI0
aI0
aI0
aI0
aI0
aI0
aI0
aI0
aI0
aI0
aI0
aI0
aI0
aI0
aI0
aI0
aI0
aI0
aI0
aI0
aI0
aI0
aI0
aI0
aI0
aI0
aI0
aI0
aI0
aI0
aI0
aI0
aI0
aI0
aI0
aI0
aI0
aI0
aI0
aI0
aI0
aI0
aI0
aI0
aI0
aI0
aI0
aI0
aI0
aI0
aI0
aI0
aI0
aI0
aI0
aI0
aI0
aI0
aI0
aI0
aI0
aI0
aI0
aI0
aI0
aI0
aI0
aI0
aI0
aI0
aa(lp208
I0
aI0
aI0
aI0
aI0
aI0
aI0
aI0
aI0
aI0
aI0
aI0
aI0
aI0
aI0
aI0
aI0
aI0
aI0
aI0
aI0
aI0
aI0
aI0
aI0
aI0
aI0
aI0
aI0
aI0
aI0
aI0
aI0
aI0
aI0
aI0
aI0
aI0
aI0
aI0
aI0
aI0
aI0
aI0
aI0
aI0
aI0
aI0
aI0
aI0
aI0
aI0
aI0
aI0
aI0
aI0
aI0
aI0
aI0
aI0
aI0
aI0
aI0
aI0
aI0
aI0
aI0
aI0
aI0
aI0
aI0
aI0
aI0
aI0
aI0
aI0
aI0
aI0
aI0
aI0
aI0
aI0
aI0
aI0
aI0
aI0
aI0
aI0
aI0
aI0
aI0
aI0
aI0
aI0
aI0
aI0
aI0
aI0
aI0
aI0
aI0
aI0
aI0
aI0
aI0
aI0
aI0
aI0
aI0
aI0
aI0
aI0
aI0
aI0
aa(lp209
I0
aI0
aI0
aI0
aI0
aI0
aI0
aI0
aI0
aI0
aI0
aI0
aI0
aI0
aI0
aI0
aI0
aI0
aI0
aI0
aI0
aI0
aI0
aI0
aI0
aI0
aI0
aI0
aI0
aI0
aI0
aI0
aI0
aI0
aI0
aI0
aI0
aI0
aI0
aI0
aI0
aI0
aI0
aI0
aI0
aI0
aI0
aI0
aI0
aI0
aI0
aI0
aI0
aI0
aI0
aI0
aI0
aI0
aI0
aI0
aI0
aI0
aI0
aI0
aI0
aI0
aI0
aI0
aI0
aI0
aI0
aI0
aI0
aI0
aI0
aI0
aI0
aI0
aI0
aI0
aI0
aI0
aI0
aI0
aI0
aI0
aI0
aI0
aI0
aI0
aI0
aI0
aI0
aI0
aI0
aI0
aI0
aI0
aI0
aI0
aI0
aI0
aI0
aI0
aI0
aI0
aI0
aI0
aI0
aI0
aI0
aI0
aI0
aI0
aa(lp210
I0
aI0
aI0
aI0
aI0
aI0
aI0
aI0
aI0
aI0
aI0
aI0
aI0
aI0
aI0
aI0
aI0
aI0
aI0
aI0
aI0
aI0
aI0
aI0
aI0
aI0
aI0
aI0
aI0
aI0
aI0
aI0
aI0
aI0
aI0
aI0
aI0
aI0
aI0
aI0
aI0
aI0
aI0
aI0
aI0
aI0
aI0
aI0
aI0
aI0
aI0
aI0
aI0
aI0
aI0
aI0
aI0
aI0
aI0
aI0
aI0
aI0
aI0
aI0
aI0
aI0
aI0
aI0
aI0
aI0
aI0
aI0
aI0
aI0
aI0
aI0
aI0
aI0
aI0
aI0
aI0
aI0
aI0
aI0
aI0
aI0
aI0
aI0
aI0
aI0
aI0
aI0
aI0
aI0
aI0
aI0
aI0
aI0
aI0
aI0
aI0
aI0
aI0
aI0
aI0
aI0
aI0
aI0
aI0
aI0
aI0
aI0
aI0
aI0
aa(lp211
I0
aI0
aI0
aI0
aI0
aI0
aI0
aI0
aI0
aI0
aI0
aI0
aI0
aI0
aI0
aI0
aI0
aI0
aI0
aI0
aI0
aI0
aI0
aI0
aI0
aI0
aI0
aI0
aI0
aI0
aI0
aI0
aI0
aI0
aI0
aI0
aI0
aI0
aI0
aI0
aI0
aI0
aI0
aI0
aI0
aI0
aI0
aI0
aI0
aI0
aI0
aI0
aI0
aI0
aI0
aI0
aI0
aI0
aI0
aI0
aI0
aI0
aI0
aI0
aI0
aI0
aI0
aI0
aI0
aI0
aI0
aI0
aI0
aI0
aI0
aI0
aI0
aI0
aI0
aI0
aI0
aI0
aI0
aI0
aI0
aI0
aI0
aI0
aI0
aI0
aI0
aI0
aI0
aI0
aI0
aI0
aI0
aI0
aI0
aI0
aI0
aI0
aI0
aI0
aI0
aI0
aI0
aI0
aI0
aI0
aI0
aI0
aI0
aI0
aa(lp212
I0
aI0
aI0
aI0
aI0
aI0
aI0
aI0
aI0
aI0
aI0
aI0
aI0
aI0
aI0
aI0
aI0
aI0
aI0
aI0
aI0
aI0
aI0
aI0
aI0
aI0
aI0
aI0
aI0
aI0
aI0
aI0
aI0
aI0
aI0
aI0
aI0
aI0
aI0
aI0
aI0
aI0
aI0
aI0
aI0
aI0
aI0
aI0
aI0
aI0
aI0
aI0
aI0
aI0
aI0
aI0
aI0
aI0
aI0
aI0
aI0
aI0
aI0
aI0
aI0
aI0
aI0
aI0
aI0
aI0
aI0
aI0
aI0
aI0
aI0
aI0
aI0
aI0
aI0
aI0
aI0
aI0
aI0
aI0
aI0
aI0
aI0
aI0
aI0
aI0
aI0
aI0
aI0
aI0
aI0
aI0
aI0
aI0
aI0
aI0
aI0
aI0
aI0
aI0
aI0
aI0
aI0
aI0
aI0
aI0
aI0
aI0
aI0
aI0
aa(lp213
I0
aI0
aI0
aI0
aI0
aI0
aI0
aI0
aI0
aI0
aI0
aI0
aI0
aI0
aI0
aI0
aI0
aI0
aI0
aI0
aI0
aI0
aI0
aI0
aI0
aI0
aI0
aI0
aI0
aI0
aI0
aI0
aI0
aI0
aI0
aI0
aI0
aI0
aI0
aI0
aI0
aI0
aI0
aI0
aI0
aI0
aI0
aI0
aI0
aI0
aI0
aI0
aI0
aI0
aI0
aI0
aI0
aI0
aI0
aI0
aI0
aI0
aI0
aI0
aI0
aI0
aI0
aI0
aI0
aI0
aI0
aI0
aI0
aI0
aI0
aI0
aI0
aI0
aI0
aI0
aI0
aI0
aI0
aI0
aI0
aI0
aI0
aI0
aI0
aI0
aI0
aI0
aI0
aI0
aI0
aI0
aI0
aI0
aI0
aI0
aI0
aI0
aI0
aI0
aI0
aI0
aI0
aI0
aI0
aI0
aI0
aI0
aI0
aI0
aa(lp214
I0
aI0
aI0
aI0
aI0
aI0
aI0
aI0
aI0
aI0
aI0
aI0
aI0
aI0
aI0
aI0
aI0
aI0
aI0
aI0
aI0
aI0
aI0
aI0
aI0
aI0
aI0
aI0
aI0
aI0
aI0
aI0
aI0
aI0
aI0
aI0
aI0
aI0
aI0
aI0
aI0
aI0
aI0
aI0
aI0
aI0
aI0
aI0
aI0
aI0
aI0
aI0
aI0
aI0
aI0
aI0
aI0
aI0
aI0
aI0
aI0
aI0
aI0
aI0
aI0
aI0
aI0
aI0
aI0
aI0
aI0
aI0
aI0
aI0
aI0
aI0
aI0
aI0
aI0
aI0
aI0
aI0
aI0
aI0
aI0
aI0
aI0
aI0
aI0
aI0
aI0
aI0
aI0
aI0
aI0
aI0
aI0
aI0
aI0
aI0
aI0
aI0
aI0
aI0
aI0
aI0
aI0
aI0
aI0
aI0
aI0
aI0
aI0
aI0
aa(lp215
I0
aI0
aI0
aI0
aI0
aI0
aI0
aI0
aI0
aI0
aI0
aI0
aI0
aI0
aI0
aI0
aI0
aI0
aI0
aI0
aI0
aI0
aI0
aI0
aI0
aI0
aI0
aI0
aI0
aI0
aI0
aI0
aI0
aI0
aI0
aI0
aI0
aI0
aI0
aI0
aI0
aI0
aI0
aI0
aI0
aI0
aI0
aI0
aI0
aI0
aI0
aI0
aI0
aI0
aI0
aI0
aI0
aI0
aI0
aI0
aI0
aI0
aI0
aI0
aI0
aI0
aI0
aI0
aI0
aI0
aI0
aI0
aI0
aI0
aI0
aI0
aI0
aI0
aI0
aI0
aI0
aI0
aI0
aI0
aI0
aI0
aI0
aI0
aI0
aI0
aI0
aI0
aI0
aI0
aI0
aI0
aI0
aI0
aI0
aI0
aI0
aI0
aI0
aI0
aI0
aI0
aI0
aI0
aI0
aI0
aI0
aI0
aI0
aI0
aa(lp216
I0
aI0
aI0
aI0
aI0
aI0
aI0
aI0
aI0
aI0
aI0
aI0
aI0
aI0
aI0
aI0
aI0
aI0
aI0
aI0
aI0
aI0
aI0
aI0
aI0
aI0
aI0
aI0
aI0
aI0
aI0
aI0
aI0
aI0
aI0
aI0
aI0
aI0
aI0
aI0
aI0
aI0
aI0
aI0
aI0
aI0
aI0
aI0
aI0
aI0
aI0
aI0
aI0
aI0
aI0
aI0
aI0
aI0
aI0
aI0
aI0
aI0
aI0
aI0
aI0
aI0
aI0
aI0
aI0
aI0
aI0
aI0
aI0
aI0
aI0
aI0
aI0
aI0
aI0
aI0
aI0
aI0
aI0
aI0
aI0
aI0
aI0
aI0
aI0
aI0
aI0
aI0
aI0
aI0
aI0
aI0
aI0
aI0
aI0
aI0
aI0
aI0
aI0
aI0
aI0
aI0
aI0
aI0
aI0
aI0
aI0
aI0
aI0
aI0
aa(lp217
I0
aI0
aI0
aI0
aI0
aI0
aI0
aI0
aI0
aI0
aI0
aI0
aI0
aI0
aI0
aI0
aI0
aI0
aI0
aI0
aI0
aI0
aI0
aI0
aI0
aI0
aI0
aI0
aI0
aI0
aI0
aI0
aI0
aI0
aI0
aI0
aI0
aI0
aI0
aI0
aI0
aI0
aI0
aI0
aI0
aI0
aI0
aI0
aI0
aI0
aI0
aI0
aI0
aI0
aI0
aI0
aI0
aI0
aI0
aI0
aI0
aI0
aI0
aI0
aI0
aI0
aI0
aI0
aI0
aI0
aI0
aI0
aI0
aI0
aI0
aI0
aI0
aI0
aI0
aI0
aI0
aI0
aI0
aI0
aI0
aI0
aI0
aI0
aI0
aI0
aI0
aI0
aI0
aI0
aI0
aI0
aI0
aI0
aI0
aI0
aI0
aI0
aI0
aI0
aI0
aI0
aI0
aI0
aI0
aI0
aI0
aI0
aI0
aI0
aa(lp218
I0
aI0
aI0
aI0
aI0
aI0
aI0
aI0
aI0
aI0
aI0
aI0
aI0
aI0
aI0
aI0
aI0
aI0
aI0
aI0
aI0
aI0
aI0
aI0
aI0
aI0
aI0
aI0
aI0
aI0
aI0
aI0
aI0
aI0
aI0
aI0
aI0
aI0
aI0
aI0
aI0
aI0
aI0
aI0
aI0
aI0
aI0
aI0
aI0
aI0
aI0
aI0
aI0
aI0
aI0
aI0
aI0
aI0
aI0
aI0
aI0
aI0
aI0
aI0
aI0
aI0
aI0
aI0
aI0
aI0
aI0
aI0
aI0
aI0
aI0
aI0
aI0
aI0
aI0
aI0
aI0
aI0
aI0
aI0
aI0
aI0
aI0
aI0
aI0
aI0
aI0
aI0
aI0
aI0
aI0
aI0
aI0
aI0
aI0
aI0
aI0
aI0
aI0
aI0
aI0
aI0
aI0
aI0
aI0
aI0
aI0
aI0
aI0
aI0
aa(lp219
I0
aI0
aI0
aI0
aI0
aI0
aI0
aI0
aI0
aI0
aI0
aI0
aI0
aI0
aI0
aI0
aI0
aI0
aI0
aI0
aI0
aI0
aI0
aI0
aI0
aI0
aI0
aI0
aI0
aI0
aI0
aI0
aI0
aI0
aI0
aI0
aI0
aI0
aI0
aI0
aI0
aI0
aI0
aI0
aI0
aI0
aI0
aI0
aI0
aI0
aI0
aI0
aI0
aI0
aI0
aI0
aI0
aI0
aI0
aI0
aI0
aI0
aI0
aI0
aI0
aI0
aI0
aI0
aI0
aI0
aI0
aI0
aI0
aI0
aI0
aI0
aI0
aI0
aI0
aI0
aI0
aI0
aI0
aI0
aI0
aI0
aI0
aI0
aI0
aI0
aI0
aI0
aI0
aI0
aI0
aI0
aI0
aI0
aI0
aI0
aI0
aI0
aI0
aI0
aI0
aI0
aI0
aI0
aI0
aI0
aI0
aI0
aI0
aI0
aa(lp220
I0
aI0
aI0
aI0
aI0
aI0
aI0
aI0
aI0
aI0
aI0
aI0
aI0
aI0
aI0
aI0
aI0
aI0
aI0
aI0
aI0
aI0
aI0
aI0
aI0
aI0
aI0
aI0
aI0
aI0
aI0
aI0
aI0
aI0
aI0
aI0
aI0
aI0
aI0
aI0
aI0
aI0
aI0
aI0
aI0
aI0
aI0
aI0
aI0
aI0
aI0
aI0
aI0
aI0
aI0
aI0
aI0
aI0
aI0
aI0
aI0
aI0
aI0
aI0
aI0
aI0
aI0
aI0
aI0
aI0
aI0
aI0
aI0
aI0
aI0
aI0
aI0
aI0
aI0
aI0
aI0
aI0
aI0
aI0
aI0
aI0
aI0
aI0
aI0
aI0
aI0
aI0
aI0
aI0
aI0
aI0
aI0
aI0
aI0
aI0
aI0
aI0
aI0
aI0
aI0
aI0
aI0
aI0
aI0
aI0
aI0
aI0
aI0
aI0
aa(lp221
I0
aI0
aI0
aI0
aI0
aI0
aI0
aI0
aI0
aI0
aI0
aI0
aI0
aI0
aI0
aI0
aI0
aI0
aI0
aI0
aI0
aI0
aI0
aI0
aI0
aI0
aI0
aI0
aI0
aI0
aI0
aI0
aI0
aI0
aI0
aI0
aI0
aI0
aI0
aI0
aI0
aI0
aI0
aI0
aI0
aI0
aI0
aI0
aI0
aI0
aI0
aI0
aI0
aI0
aI0
aI0
aI0
aI0
aI0
aI0
aI0
aI0
aI0
aI0
aI0
aI0
aI0
aI0
aI0
aI0
aI0
aI0
aI0
aI0
aI0
aI0
aI0
aI0
aI0
aI0
aI0
aI0
aI0
aI0
aI0
aI0
aI0
aI0
aI0
aI0
aI0
aI0
aI0
aI0
aI0
aI0
aI0
aI0
aI0
aI0
aI0
aI0
aI0
aI0
aI0
aI0
aI0
aI0
aI0
aI0
aI0
aI0
aI0
aI0
aa(lp222
I0
aI0
aI0
aI0
aI0
aI0
aI0
aI0
aI0
aI0
aI0
aI0
aI0
aI0
aI0
aI0
aI0
aI0
aI0
aI0
aI0
aI0
aI0
aI0
aI0
aI0
aI0
aI0
aI0
aI0
aI0
aI0
aI0
aI0
aI0
aI0
aI0
aI0
aI0
aI0
aI0
aI0
aI0
aI0
aI0
aI0
aI0
aI0
aI0
aI0
aI0
aI0
aI0
aI0
aI0
aI0
aI0
aI0
aI0
aI0
aI0
aI0
aI0
aI0
aI0
aI0
aI0
aI0
aI0
aI0
aI0
aI0
aI0
aI0
aI0
aI0
aI0
aI0
aI0
aI0
aI0
aI0
aI0
aI0
aI0
aI0
aI0
aI0
aI0
aI0
aI0
aI0
aI0
aI0
aI0
aI0
aI0
aI0
aI0
aI0
aI0
aI0
aI0
aI0
aI0
aI0
aI0
aI0
aI0
aI0
aI0
aI0
aI0
aI0
aa(lp223
I0
aI0
aI0
aI0
aI0
aI0
aI0
aI0
aI0
aI0
aI0
aI0
aI0
aI0
aI0
aI0
aI0
aI0
aI0
aI0
aI0
aI0
aI0
aI0
aI0
aI0
aI0
aI0
aI0
aI0
aI0
aI0
aI0
aI0
aI0
aI0
aI0
aI0
aI0
aI0
aI0
aI0
aI0
aI0
aI0
aI0
aI0
aI0
aI0
aI0
aI0
aI0
aI0
aI0
aI0
aI0
aI0
aI0
aI0
aI0
aI0
aI0
aI0
aI0
aI0
aI0
aI0
aI0
aI0
aI0
aI0
aI0
aI0
aI0
aI0
aI0
aI0
aI0
aI0
aI0
aI0
aI0
aI0
aI0
aI0
aI0
aI0
aI0
aI0
aI0
aI0
aI0
aI0
aI0
aI0
aI0
aI0
aI0
aI0
aI0
aI0
aI0
aI0
aI0
aI0
aI0
aI0
aI0
aI0
aI0
aI0
aI0
aI0
aI0
aa(lp224
I0
aI0
aI0
aI0
aI0
aI0
aI0
aI0
aI0
aI0
aI0
aI0
aI0
aI0
aI0
aI0
aI0
aI0
aI0
aI0
aI0
aI0
aI0
aI0
aI0
aI0
aI0
aI0
aI0
aI0
aI0
aI0
aI0
aI0
aI0
aI0
aI0
aI0
aI0
aI0
aI0
aI0
aI0
aI0
aI0
aI0
aI0
aI0
aI0
aI0
aI0
aI0
aI0
aI0
aI0
aI0
aI0
aI0
aI0
aI0
aI0
aI0
aI0
aI0
aI0
aI0
aI0
aI0
aI0
aI0
aI0
aI0
aI0
aI0
aI0
aI0
aI0
aI0
aI0
aI0
aI0
aI0
aI0
aI0
aI0
aI0
aI0
aI0
aI0
aI0
aI0
aI0
aI0
aI0
aI0
aI0
aI0
aI0
aI0
aI0
aI0
aI0
aI0
aI0
aI0
aI0
aI0
aI0
aI0
aI0
aI0
aI0
aI0
aI0
aa(lp225
I0
aI0
aI0
aI0
aI0
aI0
aI0
aI0
aI0
aI0
aI0
aI0
aI0
aI0
aI0
aI0
aI0
aI0
aI0
aI0
aI0
aI0
aI0
aI0
aI0
aI0
aI0
aI0
aI0
aI0
aI0
aI0
aI0
aI0
aI0
aI0
aI0
aI0
aI0
aI0
aI0
aI0
aI0
aI0
aI0
aI0
aI0
aI0
aI0
aI0
aI0
aI0
aI0
aI0
aI0
aI0
aI0
aI0
aI0
aI0
aI0
aI0
aI0
aI0
aI0
aI0
aI0
aI0
aI0
aI0
aI0
aI0
aI0
aI0
aI0
aI0
aI0
aI0
aI0
aI0
aI0
aI0
aI0
aI0
aI0
aI0
aI0
aI0
aI0
aI0
aI0
aI0
aI0
aI0
aI0
aI0
aI0
aI0
aI0
aI0
aI0
aI0
aI0
aI0
aI0
aI0
aI0
aI0
aI0
aI0
aI0
aI0
aI0
aI0
aa(lp226
I0
aI0
aI0
aI0
aI0
aI0
aI0
aI0
aI0
aI0
aI0
aI0
aI0
aI0
aI0
aI0
aI0
aI0
aI0
aI0
aI0
aI0
aI0
aI0
aI0
aI0
aI0
aI0
aI0
aI0
aI0
aI0
aI0
aI0
aI0
aI0
aI0
aI0
aI0
aI0
aI0
aI0
aI0
aI0
aI0
aI0
aI0
aI0
aI0
aI0
aI0
aI0
aI0
aI0
aI0
aI0
aI0
aI0
aI0
aI0
aI0
aI0
aI0
aI0
aI0
aI0
aI0
aI0
aI0
aI0
aI0
aI0
aI0
aI0
aI0
aI0
aI0
aI0
aI0
aI0
aI0
aI0
aI0
aI0
aI0
aI0
aI0
aI0
aI0
aI0
aI0
aI0
aI0
aI0
aI0
aI0
aI0
aI0
aI0
aI0
aI0
aI0
aI0
aI0
aI0
aI0
aI0
aI0
aI0
aI0
aI0
aI0
aI0
aI0
aa(lp227
I0
aI0
aI0
aI0
aI0
aI0
aI0
aI0
aI0
aI0
aI0
aI0
aI0
aI0
aI0
aI0
aI0
aI0
aI0
aI0
aI0
aI0
aI0
aI0
aI0
aI0
aI0
aI0
aI0
aI0
aI0
aI0
aI0
aI0
aI0
aI0
aI0
aI0
aI0
aI0
aI0
aI0
aI0
aI0
aI0
aI0
aI0
aI0
aI0
aI0
aI0
aI0
aI0
aI0
aI0
aI0
aI0
aI0
aI0
aI0
aI0
aI0
aI0
aI0
aI0
aI0
aI0
aI0
aI0
aI0
aI0
aI0
aI0
aI0
aI0
aI0
aI0
aI0
aI0
aI0
aI0
aI0
aI0
aI0
aI0
aI0
aI0
aI0
aI0
aI0
aI0
aI0
aI0
aI0
aI0
aI0
aI0
aI0
aI0
aI0
aI0
aI0
aI0
aI0
aI0
aI0
aI0
aI0
aI0
aI0
aI0
aI0
aI0
aI0
aa(lp228
I0
aI0
aI0
aI0
aI0
aI0
aI0
aI0
aI0
aI0
aI0
aI0
aI0
aI0
aI0
aI0
aI0
aI0
aI0
aI0
aI0
aI0
aI0
aI0
aI0
aI0
aI0
aI0
aI0
aI0
aI0
aI0
aI0
aI0
aI0
aI0
aI0
aI0
aI0
aI0
aI0
aI0
aI0
aI0
aI0
aI0
aI0
aI0
aI0
aI0
aI0
aI0
aI0
aI0
aI0
aI0
aI0
aI0
aI0
aI0
aI0
aI0
aI0
aI0
aI0
aI0
aI0
aI0
aI0
aI0
aI0
aI0
aI0
aI0
aI0
aI0
aI0
aI0
aI0
aI0
aI0
aI0
aI0
aI0
aI0
aI0
aI0
aI0
aI0
aI0
aI0
aI0
aI0
aI0
aI0
aI0
aI0
aI0
aI0
aI0
aI0
aI0
aI0
aI0
aI0
aI0
aI0
aI0
aI0
aI0
aI0
aI0
aI0
aI0
aa(lp229
I0
aI0
aI0
aI0
aI0
aI0
aI0
aI0
aI0
aI0
aI0
aI0
aI0
aI0
aI0
aI0
aI0
aI0
aI0
aI0
aI0
aI0
aI0
aI0
aI0
aI0
aI0
aI0
aI0
aI0
aI0
aI0
aI0
aI0
aI0
aI0
aI0
aI0
aI0
aI0
aI0
aI0
aI0
aI0
aI0
aI0
aI0
aI0
aI0
aI0
aI0
aI0
aI0
aI0
aI0
aI0
aI0
aI0
aI0
aI0
aI0
aI0
aI0
aI0
aI0
aI0
aI0
aI0
aI0
aI0
aI0
aI0
aI0
aI0
aI0
aI0
aI0
aI0
aI0
aI0
aI0
aI0
aI0
aI0
aI0
aI0
aI0
aI0
aI0
aI0
aI0
aI0
aI0
aI0
aI0
aI0
aI0
aI0
aI0
aI0
aI0
aI0
aI0
aI0
aI0
aI0
aI0
aI0
aI0
aI0
aI0
aI0
aI0
aI0
aa(lp230
I0
aI0
aI0
aI0
aI0
aI0
aI0
aI0
aI0
aI0
aI0
aI0
aI0
aI0
aI0
aI0
aI0
aI0
aI0
aI0
aI0
aI0
aI0
aI0
aI0
aI0
aI0
aI0
aI0
aI0
aI0
aI0
aI0
aI0
aI0
aI0
aI0
aI0
aI0
aI0
aI0
aI0
aI0
aI0
aI0
aI0
aI0
aI0
aI0
aI0
aI0
aI0
aI0
aI0
aI0
aI0
aI0
aI0
aI0
aI0
aI0
aI0
aI0
aI0
aI0
aI0
aI0
aI0
aI0
aI0
aI0
aI0
aI0
aI0
aI0
aI0
aI0
aI0
aI0
aI0
aI0
aI0
aI0
aI0
aI0
aI0
aI0
aI0
aI0
aI0
aI0
aI0
aI0
aI0
aI0
aI0
aI0
aI0
aI0
aI0
aI0
aI0
aI0
aI0
aI0
aI0
aI0
aI0
aI0
aI0
aI0
aI0
aI0
aI0
aa(lp231
I0
aI0
aI0
aI0
aI0
aI0
aI0
aI0
aI0
aI0
aI0
aI0
aI0
aI0
aI0
aI0
aI0
aI0
aI0
aI0
aI0
aI0
aI0
aI0
aI0
aI0
aI0
aI0
aI0
aI0
aI0
aI0
aI0
aI0
aI0
aI0
aI0
aI0
aI0
aI0
aI0
aI0
aI0
aI0
aI0
aI0
aI0
aI0
aI0
aI0
aI0
aI0
aI0
aI0
aI0
aI0
aI0
aI0
aI0
aI0
aI0
aI0
aI0
aI0
aI0
aI0
aI0
aI0
aI0
aI0
aI0
aI0
aI0
aI0
aI0
aI0
aI0
aI0
aI0
aI0
aI0
aI0
aI0
aI0
aI0
aI0
aI0
aI0
aI0
aI0
aI0
aI0
aI0
aI0
aI0
aI0
aI0
aI0
aI0
aI0
aI0
aI0
aI0
aI0
aI0
aI0
aI0
aI0
aI0
aI0
aI0
aI0
aI0
aI0
aa(lp232
I0
aI0
aI0
aI0
aI0
aI0
aI0
aI0
aI0
aI0
aI0
aI0
aI0
aI0
aI0
aI0
aI0
aI0
aI0
aI0
aI0
aI0
aI0
aI0
aI0
aI0
aI0
aI0
aI0
aI0
aI0
aI0
aI0
aI0
aI0
aI0
aI0
aI0
aI0
aI0
aI0
aI0
aI0
aI0
aI0
aI0
aI0
aI0
aI0
aI0
aI0
aI0
aI0
aI0
aI0
aI0
aI0
aI0
aI0
aI0
aI0
aI0
aI0
aI0
aI0
aI0
aI0
aI0
aI0
aI0
aI0
aI0
aI0
aI0
aI0
aI0
aI0
aI0
aI0
aI0
aI0
aI0
aI0
aI0
aI0
aI0
aI0
aI0
aI0
aI0
aI0
aI0
aI0
aI0
aI0
aI0
aI0
aI0
aI0
aI0
aI0
aI0
aI0
aI0
aI0
aI0
aI0
aI0
aI0
aI0
aI0
aI0
aI0
aI0
aa(lp233
I0
aI0
aI0
aI0
aI0
aI0
aI0
aI0
aI0
aI0
aI0
aI0
aI0
aI0
aI0
aI0
aI0
aI0
aI0
aI0
aI0
aI0
aI0
aI0
aI0
aI0
aI0
aI0
aI0
aI0
aI0
aI0
aI0
aI0
aI0
aI0
aI0
aI0
aI0
aI0
aI0
aI0
aI0
aI0
aI0
aI0
aI0
aI0
aI0
aI0
aI0
aI0
aI0
aI0
aI0
aI0
aI0
aI0
aI0
aI0
aI0
aI0
aI0
aI0
aI0
aI0
aI0
aI0
aI0
aI0
aI0
aI0
aI0
aI0
aI0
aI0
aI0
aI0
aI0
aI0
aI0
aI0
aI0
aI0
aI0
aI0
aI0
aI0
aI0
aI0
aI0
aI0
aI0
aI0
aI0
aI0
aI0
aI0
aI0
aI0
aI0
aI0
aI0
aI0
aI0
aI0
aI0
aI0
aI0
aI0
aI0
aI0
aI0
aI0
aa(lp234
I0
aI0
aI0
aI0
aI0
aI0
aI0
aI0
aI0
aI0
aI0
aI0
aI0
aI0
aI0
aI0
aI0
aI0
aI0
aI0
aI0
aI0
aI0
aI0
aI0
aI0
aI0
aI0
aI0
aI0
aI0
aI0
aI0
aI0
aI0
aI0
aI0
aI0
aI0
aI0
aI0
aI0
aI0
aI0
aI0
aI0
aI0
aI0
aI0
aI0
aI0
aI0
aI0
aI0
aI0
aI0
aI0
aI0
aI0
aI0
aI0
aI0
aI0
aI0
aI0
aI0
aI0
aI0
aI0
aI0
aI0
aI0
aI0
aI0
aI0
aI0
aI0
aI0
aI0
aI0
aI0
aI0
aI0
aI0
aI0
aI0
aI0
aI0
aI0
aI0
aI0
aI0
aI0
aI0
aI0
aI0
aI0
aI0
aI0
aI0
aI0
aI0
aI0
aI0
aI0
aI0
aI0
aI0
aI0
aI0
aI0
aI0
aI0
aI0
aa(lp235
I0
aI0
aI0
aI0
aI0
aI0
aI0
aI0
aI0
aI0
aI0
aI0
aI0
aI0
aI0
aI0
aI0
aI0
aI0
aI0
aI0
aI0
aI0
aI0
aI0
aI0
aI0
aI0
aI0
aI0
aI0
aI0
aI0
aI0
aI0
aI0
aI0
aI0
aI0
aI0
aI0
aI0
aI0
aI0
aI0
aI0
aI0
aI0
aI0
aI0
aI0
aI0
aI0
aI0
aI0
aI0
aI0
aI0
aI0
aI0
aI0
aI0
aI0
aI0
aI0
aI0
aI0
aI0
aI0
aI0
aI0
aI0
aI0
aI0
aI0
aI0
aI0
aI0
aI0
aI0
aI0
aI0
aI0
aI0
aI0
aI0
aI0
aI0
aI0
aI0
aI0
aI0
aI0
aI0
aI0
aI0
aI0
aI0
aI0
aI0
aI0
aI0
aI0
aI0
aI0
aI0
aI0
aI0
aI0
aI0
aI0
aI0
aI0
aI0
aa(lp236
I0
aI0
aI0
aI0
aI0
aI0
aI0
aI0
aI0
aI0
aI0
aI0
aI0
aI0
aI0
aI0
aI0
aI0
aI0
aI0
aI0
aI0
aI0
aI0
aI0
aI0
aI0
aI0
aI0
aI0
aI0
aI0
aI0
aI0
aI0
aI0
aI0
aI0
aI0
aI0
aI0
aI0
aI0
aI0
aI0
aI0
aI0
aI0
aI0
aI0
aI0
aI0
aI0
aI0
aI0
aI0
aI0
aI0
aI0
aI0
aI0
aI0
aI0
aI0
aI0
aI0
aI0
aI0
aI0
aI0
aI0
aI0
aI0
aI0
aI0
aI0
aI0
aI0
aI0
aI0
aI0
aI0
aI0
aI0
aI0
aI0
aI0
aI0
aI0
aI0
aI0
aI0
aI0
aI0
aI0
aI0
aI0
aI0
aI0
aI0
aI0
aI0
aI0
aI0
aI0
aI0
aI0
aI0
aI0
aI0
aI0
aI0
aI0
aI0
aa(lp237
I0
aI0
aI0
aI0
aI0
aI0
aI0
aI0
aI0
aI0
aI0
aI0
aI0
aI0
aI0
aI0
aI0
aI0
aI0
aI0
aI0
aI0
aI0
aI0
aI0
aI0
aI0
aI0
aI0
aI0
aI0
aI0
aI0
aI0
aI0
aI0
aI0
aI0
aI0
aI0
aI0
aI0
aI0
aI0
aI0
aI0
aI0
aI0
aI0
aI0
aI0
aI0
aI0
aI0
aI0
aI0
aI0
aI0
aI0
aI0
aI0
aI0
aI0
aI0
aI0
aI0
aI0
aI0
aI0
aI0
aI0
aI0
aI0
aI0
aI0
aI0
aI0
aI0
aI0
aI0
aI0
aI0
aI0
aI0
aI0
aI0
aI0
aI0
aI0
aI0
aI0
aI0
aI0
aI0
aI0
aI0
aI0
aI0
aI0
aI0
aI0
aI0
aI0
aI0
aI0
aI0
aI0
aI0
aI0
aI0
aI0
aI0
aI0
aI0
aa(lp238
I0
aI0
aI0
aI0
aI0
aI0
aI0
aI0
aI0
aI0
aI0
aI0
aI0
aI0
aI0
aI0
aI0
aI0
aI0
aI0
aI0
aI0
aI0
aI0
aI0
aI0
aI0
aI0
aI0
aI0
aI0
aI0
aI0
aI0
aI0
aI0
aI0
aI0
aI0
aI0
aI0
aI0
aI0
aI0
aI0
aI0
aI0
aI0
aI0
aI0
aI0
aI0
aI0
aI0
aI0
aI0
aI0
aI0
aI0
aI0
aI0
aI0
aI0
aI0
aI0
aI0
aI0
aI0
aI0
aI0
aI0
aI0
aI0
aI0
aI0
aI0
aI0
aI0
aI0
aI0
aI0
aI0
aI0
aI0
aI0
aI0
aI0
aI0
aI0
aI0
aI0
aI0
aI0
aI0
aI0
aI0
aI0
aI0
aI0
aI0
aI0
aI0
aI0
aI0
aI0
aI0
aI0
aI0
aI0
aI0
aI0
aI0
aI0
aI0
aa(lp239
I0
aI0
aI0
aI0
aI0
aI0
aI0
aI0
aI0
aI0
aI0
aI0
aI0
aI0
aI0
aI0
aI0
aI0
aI0
aI0
aI0
aI0
aI0
aI0
aI0
aI0
aI0
aI0
aI0
aI0
aI0
aI0
aI0
aI0
aI0
aI0
aI0
aI0
aI0
aI0
aI0
aI0
aI0
aI0
aI0
aI0
aI0
aI0
aI0
aI0
aI0
aI0
aI0
aI0
aI0
aI0
aI0
aI0
aI0
aI0
aI0
aI0
aI0
aI0
aI0
aI0
aI0
aI0
aI0
aI0
aI0
aI0
aI0
aI0
aI0
aI0
aI0
aI0
aI0
aI0
aI0
aI0
aI0
aI0
aI0
aI0
aI0
aI0
aI0
aI0
aI0
aI0
aI0
aI0
aI0
aI0
aI0
aI0
aI0
aI0
aI0
aI0
aI0
aI0
aI0
aI0
aI0
aI0
aI0
aI0
aI0
aI0
aI0
aI0
aa(lp240
I0
aI0
aI0
aI0
aI0
aI0
aI0
aI0
aI0
aI0
aI0
aI0
aI0
aI0
aI0
aI0
aI0
aI0
aI0
aI0
aI0
aI0
aI0
aI0
aI0
aI0
aI0
aI0
aI0
aI0
aI0
aI0
aI0
aI0
aI0
aI0
aI0
aI0
aI0
aI0
aI0
aI0
aI0
aI0
aI0
aI0
aI0
aI0
aI0
aI0
aI0
aI0
aI0
aI0
aI0
aI0
aI0
aI0
aI0
aI0
aI0
aI0
aI0
aI0
aI0
aI0
aI0
aI0
aI0
aI0
aI0
aI0
aI0
aI0
aI0
aI0
aI0
aI0
aI0
aI0
aI0
aI0
aI0
aI0
aI0
aI0
aI0
aI0
aI0
aI0
aI0
aI0
aI0
aI0
aI0
aI0
aI0
aI0
aI0
aI0
aI0
aI0
aI0
aI0
aI0
aI0
aI0
aI0
aI0
aI0
aI0
aI0
aI0
aI0
aa(lp241
I0
aI0
aI0
aI0
aI0
aI0
aI0
aI0
aI0
aI0
aI0
aI0
aI0
aI0
aI0
aI0
aI0
aI0
aI0
aI0
aI0
aI0
aI0
aI0
aI0
aI0
aI0
aI0
aI0
aI0
aI0
aI0
aI0
aI0
aI0
aI0
aI0
aI0
aI0
aI0
aI0
aI0
aI0
aI0
aI0
aI0
aI0
aI0
aI0
aI0
aI0
aI0
aI0
aI0
aI0
aI0
aI0
aI0
aI0
aI0
aI0
aI0
aI0
aI0
aI0
aI0
aI0
aI0
aI0
aI0
aI0
aI0
aI0
aI0
aI0
aI0
aI0
aI0
aI0
aI0
aI0
aI0
aI0
aI0
aI0
aI0
aI0
aI0
aI0
aI0
aI0
aI0
aI0
aI0
aI0
aI0
aI0
aI0
aI0
aI0
aI0
aI0
aI0
aI0
aI0
aI0
aI0
aI0
aI0
aI0
aI0
aI0
aI0
aI0
aa(lp242
I0
aI0
aI0
aI0
aI0
aI0
aI0
aI0
aI0
aI0
aI0
aI0
aI0
aI0
aI0
aI0
aI0
aI0
aI0
aI0
aI0
aI0
aI0
aI0
aI0
aI0
aI0
aI0
aI0
aI0
aI0
aI0
aI0
aI0
aI0
aI0
aI0
aI0
aI0
aI0
aI0
aI0
aI0
aI0
aI0
aI0
aI0
aI0
aI0
aI0
aI0
aI0
aI0
aI0
aI0
aI0
aI0
aI0
aI0
aI0
aI0
aI0
aI0
aI0
aI0
aI0
aI0
aI0
aI0
aI0
aI0
aI0
aI0
aI0
aI0
aI0
aI0
aI0
aI0
aI0
aI0
aI0
aI0
aI0
aI0
aI0
aI0
aI0
aI0
aI0
aI0
aI0
aI0
aI0
aI0
aI0
aI0
aI0
aI0
aI0
aI0
aI0
aI0
aI0
aI0
aI0
aI0
aI0
aI0
aI0
aI0
aI0
aI0
aI0
aa(lp243
I0
aI0
aI0
aI0
aI0
aI0
aI0
aI0
aI0
aI0
aI0
aI0
aI0
aI0
aI0
aI0
aI0
aI0
aI0
aI0
aI0
aI0
aI0
aI0
aI0
aI0
aI0
aI0
aI0
aI0
aI0
aI0
aI0
aI0
aI0
aI0
aI0
aI0
aI0
aI0
aI0
aI0
aI0
aI0
aI0
aI0
aI0
aI0
aI0
aI0
aI0
aI0
aI0
aI0
aI0
aI0
aI0
aI0
aI0
aI0
aI0
aI0
aI0
aI0
aI0
aI0
aI0
aI0
aI0
aI0
aI0
aI0
aI0
aI0
aI0
aI0
aI0
aI0
aI0
aI0
aI0
aI0
aI0
aI0
aI0
aI0
aI0
aI0
aI0
aI0
aI0
aI0
aI0
aI0
aI0
aI0
aI0
aI0
aI0
aI0
aI0
aI0
aI0
aI0
aI0
aI0
aI0
aI0
aI0
aI0
aI0
aI0
aI0
aI0
aa(lp244
I0
aI0
aI0
aI0
aI0
aI0
aI0
aI0
aI0
aI0
aI0
aI0
aI0
aI0
aI0
aI0
aI0
aI0
aI0
aI0
aI0
aI0
aI0
aI0
aI0
aI0
aI0
aI0
aI0
aI0
aI0
aI0
aI0
aI0
aI0
aI0
aI0
aI0
aI0
aI0
aI0
aI0
aI0
aI0
aI0
aI0
aI0
aI0
aI0
aI0
aI0
aI0
aI0
aI0
aI0
aI0
aI0
aI0
aI0
aI0
aI0
aI0
aI0
aI0
aI0
aI0
aI0
aI0
aI0
aI0
aI0
aI0
aI0
aI0
aI0
aI0
aI0
aI0
aI0
aI0
aI0
aI0
aI0
aI0
aI0
aI0
aI0
aI0
aI0
aI0
aI0
aI0
aI0
aI0
aI0
aI0
aI0
aI0
aI0
aI0
aI0
aI0
aI0
aI0
aI0
aI0
aI0
aI0
aI0
aI0
aI0
aI0
aI0
aI0
aa(lp245
I0
aI0
aI0
aI0
aI0
aI0
aI0
aI0
aI0
aI0
aI0
aI0
aI0
aI0
aI0
aI0
aI0
aI0
aI0
aI0
aI0
aI0
aI0
aI0
aI0
aI0
aI0
aI0
aI0
aI0
aI0
aI0
aI0
aI0
aI0
aI0
aI0
aI0
aI0
aI0
aI0
aI0
aI0
aI0
aI0
aI0
aI0
aI0
aI0
aI0
aI0
aI0
aI0
aI0
aI0
aI0
aI0
aI0
aI0
aI0
aI0
aI0
aI0
aI0
aI0
aI0
aI0
aI0
aI0
aI0
aI0
aI0
aI0
aI0
aI0
aI0
aI0
aI0
aI0
aI0
aI0
aI0
aI0
aI0
aI0
aI0
aI0
aI0
aI0
aI0
aI0
aI0
aI0
aI0
aI0
aI0
aI0
aI0
aI0
aI0
aI0
aI0
aI0
aI0
aI0
aI0
aI0
aI0
aI0
aI0
aI0
aI0
aI0
aI0
aa(lp246
I0
aI0
aI0
aI0
aI0
aI0
aI0
aI0
aI0
aI0
aI0
aI0
aI0
aI0
aI0
aI0
aI0
aI0
aI0
aI0
aI0
aI0
aI0
aI0
aI0
aI0
aI0
aI0
aI0
aI0
aI0
aI0
aI0
aI0
aI0
aI0
aI0
aI0
aI0
aI0
aI0
aI0
aI0
aI0
aI0
aI0
aI0
aI0
aI0
aI0
aI0
aI0
aI0
aI0
aI0
aI0
aI0
aI0
aI0
aI0
aI0
aI0
aI0
aI0
aI0
aI0
aI0
aI0
aI0
aI0
aI0
aI0
aI0
aI0
aI0
aI0
aI0
aI0
aI0
aI0
aI0
aI0
aI0
aI0
aI0
aI0
aI0
aI0
aI0
aI0
aI0
aI0
aI0
aI0
aI0
aI0
aI0
aI0
aI0
aI0
aI0
aI0
aI0
aI0
aI0
aI0
aI0
aI0
aI0
aI0
aI0
aI0
aI0
aI0
aa(lp247
I0
aI0
aI0
aI0
aI0
aI0
aI0
aI0
aI0
aI0
aI0
aI0
aI0
aI0
aI0
aI0
aI0
aI0
aI0
aI0
aI0
aI0
aI0
aI0
aI0
aI0
aI0
aI0
aI0
aI0
aI0
aI0
aI0
aI0
aI0
aI0
aI0
aI0
aI0
aI0
aI0
aI0
aI0
aI0
aI0
aI0
aI0
aI0
aI0
aI0
aI0
aI0
aI0
aI0
aI0
aI0
aI0
aI0
aI0
aI0
aI0
aI0
aI0
aI0
aI0
aI0
aI0
aI0
aI0
aI0
aI0
aI0
aI0
aI0
aI0
aI0
aI0
aI0
aI0
aI0
aI0
aI0
aI0
aI0
aI0
aI0
aI0
aI0
aI0
aI0
aI0
aI0
aI0
aI0
aI0
aI0
aI0
aI0
aI0
aI0
aI0
aI0
aI0
aI0
aI0
aI0
aI0
aI0
aI0
aI0
aI0
aI0
aI0
aI0
aa(lp248
I0
aI0
aI0
aI0
aI0
aI0
aI0
aI0
aI0
aI0
aI0
aI0
aI0
aI0
aI0
aI0
aI0
aI0
aI0
aI0
aI0
aI0
aI0
aI0
aI0
aI0
aI0
aI0
aI0
aI0
aI0
aI0
aI0
aI0
aI0
aI0
aI0
aI0
aI0
aI0
aI0
aI0
aI0
aI0
aI0
aI0
aI0
aI0
aI0
aI0
aI0
aI0
aI0
aI0
aI0
aI0
aI0
aI0
aI0
aI0
aI0
aI0
aI0
aI0
aI0
aI0
aI0
aI0
aI0
aI0
aI0
aI0
aI0
aI0
aI0
aI0
aI0
aI0
aI0
aI0
aI0
aI0
aI0
aI0
aI0
aI0
aI0
aI0
aI0
aI0
aI0
aI0
aI0
aI0
aI0
aI0
aI0
aI0
aI0
aI0
aI0
aI0
aI0
aI0
aI0
aI0
aI0
aI0
aI0
aI0
aI0
aI0
aI0
aI0
aa(lp249
I0
aI0
aI0
aI0
aI0
aI0
aI0
aI0
aI0
aI0
aI0
aI0
aI0
aI0
aI0
aI0
aI0
aI0
aI0
aI0
aI0
aI0
aI0
aI0
aI0
aI0
aI0
aI0
aI0
aI0
aI0
aI0
aI0
aI0
aI0
aI0
aI0
aI0
aI0
aI0
aI0
aI0
aI0
aI0
aI0
aI0
aI0
aI0
aI0
aI0
aI0
aI0
aI0
aI0
aI0
aI0
aI0
aI0
aI0
aI0
aI0
aI0
aI0
aI0
aI0
aI0
aI0
aI0
aI0
aI0
aI0
aI0
aI0
aI0
aI0
aI0
aI0
aI0
aI0
aI0
aI0
aI0
aI0
aI0
aI0
aI0
aI0
aI0
aI0
aI0
aI0
aI0
aI0
aI0
aI0
aI0
aI0
aI0
aI0
aI0
aI0
aI0
aI0
aI0
aI0
aI0
aI0
aI0
aI0
aI0
aI0
aI0
aI0
aI0
aa(lp250
I0
aI0
aI0
aI0
aI0
aI0
aI0
aI0
aI0
aI0
aI0
aI0
aI0
aI0
aI0
aI0
aI0
aI0
aI0
aI0
aI0
aI0
aI0
aI0
aI0
aI0
aI0
aI0
aI0
aI0
aI0
aI0
aI0
aI0
aI0
aI0
aI0
aI0
aI0
aI0
aI0
aI0
aI0
aI0
aI0
aI0
aI0
aI0
aI0
aI0
aI0
aI0
aI0
aI0
aI0
aI0
aI0
aI0
aI0
aI0
aI0
aI0
aI0
aI0
aI0
aI0
aI0
aI0
aI0
aI0
aI0
aI0
aI0
aI0
aI0
aI0
aI0
aI0
aI0
aI0
aI0
aI0
aI0
aI0
aI0
aI0
aI0
aI0
aI0
aI0
aI0
aI0
aI0
aI0
aI0
aI0
aI0
aI0
aI0
aI0
aI0
aI0
aI0
aI0
aI0
aI0
aI0
aI0
aI0
aI0
aI0
aI0
aI0
aI0
aa(lp251
I0
aI0
aI0
aI0
aI0
aI0
aI0
aI0
aI0
aI0
aI0
aI0
aI0
aI0
aI0
aI0
aI0
aI0
aI0
aI0
aI0
aI0
aI0
aI0
aI0
aI0
aI0
aI0
aI0
aI0
aI0
aI0
aI0
aI0
aI0
aI0
aI0
aI0
aI0
aI0
aI0
aI0
aI0
aI0
aI0
aI0
aI0
aI0
aI0
aI0
aI0
aI0
aI0
aI0
aI0
aI0
aI0
aI0
aI0
aI0
aI0
aI0
aI0
aI0
aI0
aI0
aI0
aI0
aI0
aI0
aI0
aI0
aI0
aI0
aI0
aI0
aI0
aI0
aI0
aI0
aI0
aI0
aI0
aI0
aI0
aI0
aI0
aI0
aI0
aI0
aI0
aI0
aI0
aI0
aI0
aI0
aI0
aI0
aI0
aI0
aI0
aI0
aI0
aI0
aI0
aI0
aI0
aI0
aI0
aI0
aI0
aI0
aI0
aI0
aa(lp252
I0
aI0
aI0
aI0
aI0
aI0
aI0
aI0
aI0
aI0
aI0
aI0
aI0
aI0
aI0
aI0
aI0
aI0
aI0
aI0
aI0
aI0
aI0
aI0
aI0
aI0
aI0
aI0
aI0
aI0
aI0
aI0
aI0
aI0
aI0
aI0
aI0
aI0
aI0
aI0
aI0
aI0
aI0
aI0
aI0
aI0
aI0
aI0
aI0
aI0
aI0
aI0
aI0
aI0
aI0
aI0
aI0
aI0
aI0
aI0
aI0
aI0
aI0
aI0
aI0
aI0
aI0
aI0
aI0
aI0
aI0
aI0
aI0
aI0
aI0
aI0
aI0
aI0
aI0
aI0
aI0
aI0
aI0
aI0
aI0
aI0
aI0
aI0
aI0
aI0
aI0
aI0
aI0
aI0
aI0
aI0
aI0
aI0
aI0
aI0
aI0
aI0
aI0
aI0
aI0
aI0
aI0
aI0
aI0
aI0
aI0
aI0
aI0
aI0
aa(lp253
I0
aI0
aI0
aI0
aI0
aI0
aI0
aI0
aI0
aI0
aI0
aI0
aI0
aI0
aI0
aI0
aI0
aI0
aI0
aI0
aI0
aI0
aI0
aI0
aI0
aI0
aI0
aI0
aI0
aI0
aI0
aI0
aI0
aI0
aI0
aI0
aI0
aI0
aI0
aI0
aI0
aI0
aI0
aI0
aI0
aI0
aI0
aI0
aI0
aI0
aI0
aI0
aI0
aI0
aI0
aI0
aI0
aI0
aI0
aI0
aI0
aI0
aI0
aI0
aI0
aI0
aI0
aI0
aI0
aI0
aI0
aI0
aI0
aI0
aI0
aI0
aI0
aI0
aI0
aI0
aI0
aI0
aI0
aI0
aI0
aI0
aI0
aI0
aI0
aI0
aI0
aI0
aI0
aI0
aI0
aI0
aI0
aI0
aI0
aI0
aI0
aI0
aI0
aI0
aI0
aI0
aI0
aI0
aI0
aI0
aI0
aI0
aI0
aI0
aa(lp254
I0
aI0
aI0
aI0
aI0
aI0
aI0
aI0
aI0
aI0
aI0
aI0
aI0
aI0
aI0
aI0
aI0
aI0
aI0
aI0
aI0
aI0
aI0
aI0
aI0
aI0
aI0
aI0
aI0
aI0
aI0
aI0
aI0
aI0
aI0
aI0
aI0
aI0
aI0
aI0
aI0
aI0
aI0
aI0
aI0
aI0
aI0
aI0
aI0
aI0
aI0
aI0
aI0
aI0
aI0
aI0
aI0
aI0
aI0
aI0
aI0
aI0
aI0
aI0
aI0
aI0
aI0
aI0
aI0
aI0
aI0
aI0
aI0
aI0
aI0
aI0
aI0
aI0
aI0
aI0
aI0
aI0
aI0
aI0
aI0
aI0
aI0
aI0
aI0
aI0
aI0
aI0
aI0
aI0
aI0
aI0
aI0
aI0
aI0
aI0
aI0
aI0
aI0
aI0
aI0
aI0
aI0
aI0
aI0
aI0
aI0
aI0
aI0
aI0
aa(lp255
I0
aI0
aI0
aI0
aI0
aI0
aI0
aI0
aI0
aI0
aI0
aI0
aI0
aI0
aI0
aI0
aI0
aI0
aI0
aI0
aI0
aI0
aI0
aI0
aI0
aI0
aI0
aI0
aI0
aI0
aI0
aI0
aI0
aI0
aI0
aI0
aI0
aI0
aI0
aI0
aI0
aI0
aI0
aI0
aI0
aI0
aI0
aI0
aI0
aI0
aI0
aI0
aI0
aI0
aI0
aI0
aI0
aI0
aI0
aI0
aI0
aI0
aI0
aI0
aI0
aI0
aI0
aI0
aI0
aI0
aI0
aI0
aI0
aI0
aI0
aI0
aI0
aI0
aI0
aI0
aI0
aI0
aI0
aI0
aI0
aI0
aI0
aI0
aI0
aI0
aI0
aI0
aI0
aI0
aI0
aI0
aI0
aI0
aI0
aI0
aI0
aI0
aI0
aI0
aI0
aI0
aI0
aI0
aI0
aI0
aI0
aI0
aI0
aI0
aa(lp256
I0
aI0
aI0
aI0
aI0
aI0
aI0
aI0
aI0
aI0
aI0
aI0
aI0
aI0
aI0
aI0
aI0
aI0
aI0
aI0
aI0
aI0
aI0
aI0
aI0
aI0
aI0
aI0
aI0
aI0
aI0
aI0
aI0
aI0
aI0
aI0
aI0
aI0
aI0
aI0
aI0
aI0
aI0
aI0
aI0
aI0
aI0
aI0
aI0
aI0
aI0
aI0
aI0
aI0
aI0
aI0
aI0
aI0
aI0
aI0
aI0
aI0
aI0
aI0
aI0
aI0
aI0
aI0
aI0
aI0
aI0
aI0
aI0
aI0
aI0
aI0
aI0
aI0
aI0
aI0
aI0
aI0
aI0
aI0
aI0
aI0
aI0
aI0
aI0
aI0
aI0
aI0
aI0
aI0
aI0
aI0
aI0
aI0
aI0
aI0
aI0
aI0
aI0
aI0
aI0
aI0
aI0
aI0
aI0
aI0
aI0
aI0
aI0
aI0
aa(lp257
I0
aI0
aI0
aI0
aI0
aI0
aI0
aI0
aI0
aI0
aI0
aI0
aI0
aI0
aI0
aI0
aI0
aI0
aI0
aI0
aI0
aI0
aI0
aI0
aI0
aI0
aI0
aI0
aI0
aI0
aI0
aI0
aI0
aI0
aI0
aI0
aI0
aI0
aI0
aI0
aI0
aI0
aI0
aI0
aI0
aI0
aI0
aI0
aI0
aI0
aI0
aI0
aI0
aI0
aI0
aI0
aI0
aI0
aI0
aI0
aI0
aI0
aI0
aI0
aI0
aI0
aI0
aI0
aI0
aI0
aI0
aI0
aI0
aI0
aI0
aI0
aI0
aI0
aI0
aI0
aI0
aI0
aI0
aI0
aI0
aI0
aI0
aI0
aI0
aI0
aI0
aI0
aI0
aI0
aI0
aI0
aI0
aI0
aI0
aI0
aI0
aI0
aI0
aI0
aI0
aI0
aI0
aI0
aI0
aI0
aI0
aI0
aI0
aI0
aa(lp258
I0
aI0
aI0
aI0
aI0
aI0
aI0
aI0
aI0
aI0
aI0
aI0
aI0
aI0
aI0
aI0
aI0
aI0
aI0
aI0
aI0
aI0
aI0
aI0
aI0
aI0
aI0
aI0
aI0
aI0
aI0
aI0
aI0
aI0
aI0
aI0
aI0
aI0
aI0
aI0
aI0
aI0
aI0
aI0
aI0
aI0
aI0
aI0
aI0
aI0
aI0
aI0
aI0
aI0
aI0
aI0
aI0
aI0
aI0
aI0
aI0
aI0
aI0
aI0
aI0
aI0
aI0
aI0
aI0
aI0
aI0
aI0
aI0
aI0
aI0
aI0
aI0
aI0
aI0
aI0
aI0
aI0
aI0
aI0
aI0
aI0
aI0
aI0
aI0
aI0
aI0
aI0
aI0
aI0
aI0
aI0
aI0
aI0
aI0
aI0
aI0
aI0
aI0
aI0
aI0
aI0
aI0
aI0
aI0
aI0
aI0
aI0
aI0
aI0
aa(lp259
I0
aI0
aI0
aI0
aI0
aI0
aI0
aI0
aI0
aI0
aI0
aI0
aI0
aI0
aI0
aI0
aI0
aI0
aI0
aI0
aI0
aI0
aI0
aI0
aI0
aI0
aI0
aI0
aI0
aI0
aI0
aI0
aI0
aI0
aI0
aI0
aI0
aI0
aI0
aI0
aI0
aI0
aI0
aI0
aI0
aI0
aI0
aI0
aI0
aI0
aI0
aI0
aI0
aI0
aI0
aI0
aI0
aI0
aI0
aI0
aI0
aI0
aI0
aI0
aI0
aI0
aI0
aI0
aI0
aI0
aI0
aI0
aI0
aI0
aI0
aI0
aI0
aI0
aI0
aI0
aI0
aI0
aI0
aI0
aI0
aI0
aI0
aI0
aI0
aI0
aI0
aI0
aI0
aI0
aI0
aI0
aI0
aI0
aI0
aI0
aI0
aI0
aI0
aI0
aI0
aI0
aI0
aI0
aI0
aI0
aI0
aI0
aI0
aI0
aa(lp260
I0
aI0
aI0
aI0
aI0
aI0
aI0
aI0
aI0
aI0
aI0
aI0
aI0
aI0
aI0
aI0
aI0
aI0
aI0
aI0
aI0
aI0
aI0
aI0
aI0
aI0
aI0
aI0
aI0
aI0
aI0
aI0
aI0
aI0
aI0
aI0
aI0
aI0
aI0
aI0
aI0
aI0
aI0
aI0
aI0
aI0
aI0
aI0
aI0
aI0
aI0
aI0
aI0
aI0
aI0
aI0
aI0
aI0
aI0
aI0
aI0
aI0
aI0
aI0
aI0
aI0
aI0
aI0
aI0
aI0
aI0
aI0
aI0
aI0
aI0
aI0
aI0
aI0
aI0
aI0
aI0
aI0
aI0
aI0
aI0
aI0
aI0
aI0
aI0
aI0
aI0
aI0
aI0
aI0
aI0
aI0
aI0
aI0
aI0
aI0
aI0
aI0
aI0
aI0
aI0
aI0
aI0
aI0
aI0
aI0
aI0
aI0
aI0
aI0
aa(lp261
I0
aI0
aI0
aI0
aI0
aI0
aI0
aI0
aI0
aI0
aI0
aI0
aI0
aI0
aI0
aI0
aI0
aI0
aI0
aI0
aI0
aI0
aI0
aI0
aI0
aI0
aI0
aI0
aI0
aI0
aI0
aI0
aI0
aI0
aI0
aI0
aI0
aI0
aI0
aI0
aI0
aI0
aI0
aI0
aI0
aI0
aI0
aI0
aI0
aI0
aI0
aI0
aI0
aI0
aI0
aI0
aI0
aI0
aI0
aI0
aI0
aI0
aI0
aI0
aI0
aI0
aI0
aI0
aI0
aI0
aI0
aI0
aI0
aI0
aI0
aI0
aI0
aI0
aI0
aI0
aI0
aI0
aI0
aI0
aI0
aI0
aI0
aI0
aI0
aI0
aI0
aI0
aI0
aI0
aI0
aI0
aI0
aI0
aI0
aI0
aI0
aI0
aI0
aI0
aI0
aI0
aI0
aI0
aI0
aI0
aI0
aI0
aI0
aI0
aa(lp262
I0
aI0
aI0
aI0
aI0
aI0
aI0
aI0
aI0
aI0
aI0
aI0
aI0
aI0
aI0
aI0
aI0
aI0
aI0
aI0
aI0
aI0
aI0
aI0
aI0
aI0
aI0
aI0
aI0
aI0
aI0
aI0
aI0
aI0
aI0
aI0
aI0
aI0
aI0
aI0
aI0
aI0
aI0
aI0
aI0
aI0
aI0
aI0
aI0
aI0
aI0
aI0
aI0
aI0
aI0
aI0
aI0
aI0
aI0
aI0
aI0
aI0
aI0
aI0
aI0
aI0
aI0
aI0
aI0
aI0
aI0
aI0
aI0
aI0
aI0
aI0
aI0
aI0
aI0
aI0
aI0
aI0
aI0
aI0
aI0
aI0
aI0
aI0
aI0
aI0
aI0
aI0
aI0
aI0
aI0
aI0
aI0
aI0
aI0
aI0
aI0
aI0
aI0
aI0
aI0
aI0
aI0
aI0
aI0
aI0
aI0
aI0
aI0
aI0
aa(lp263
I0
aI0
aI0
aI0
aI0
aI0
aI0
aI0
aI0
aI0
aI0
aI0
aI0
aI0
aI0
aI0
aI0
aI0
aI0
aI0
aI0
aI0
aI0
aI0
aI0
aI0
aI0
aI0
aI0
aI0
aI0
aI0
aI0
aI0
aI0
aI0
aI0
aI0
aI0
aI0
aI0
aI0
aI0
aI0
aI0
aI0
aI0
aI0
aI0
aI0
aI0
aI0
aI0
aI0
aI0
aI0
aI0
aI0
aI0
aI0
aI0
aI0
aI0
aI0
aI0
aI0
aI0
aI0
aI0
aI0
aI0
aI0
aI0
aI0
aI0
aI0
aI0
aI0
aI0
aI0
aI0
aI0
aI0
aI0
aI0
aI0
aI0
aI0
aI0
aI0
aI0
aI0
aI0
aI0
aI0
aI0
aI0
aI0
aI0
aI0
aI0
aI0
aI0
aI0
aI0
aI0
aI0
aI0
aI0
aI0
aI0
aI0
aI0
aI0
aa(lp264
I0
aI0
aI0
aI0
aI0
aI0
aI0
aI0
aI0
aI0
aI0
aI0
aI0
aI0
aI0
aI0
aI0
aI0
aI0
aI0
aI0
aI0
aI0
aI0
aI0
aI0
aI0
aI0
aI0
aI0
aI0
aI0
aI0
aI0
aI0
aI0
aI0
aI0
aI0
aI0
aI0
aI0
aI0
aI0
aI0
aI0
aI0
aI0
aI0
aI0
aI0
aI0
aI0
aI0
aI0
aI0
aI0
aI0
aI0
aI0
aI0
aI0
aI0
aI0
aI0
aI0
aI0
aI0
aI0
aI0
aI0
aI0
aI0
aI0
aI0
aI0
aI0
aI0
aI0
aI0
aI0
aI0
aI0
aI0
aI0
aI0
aI0
aI0
aI0
aI0
aI0
aI0
aI0
aI0
aI0
aI0
aI0
aI0
aI0
aI0
aI0
aI0
aI0
aI0
aI0
aI0
aI0
aI0
aI0
aI0
aI0
aI0
aI0
aI0
aa(lp265
I0
aI0
aI0
aI0
aI0
aI0
aI0
aI0
aI0
aI0
aI0
aI0
aI0
aI0
aI0
aI0
aI0
aI0
aI0
aI0
aI0
aI0
aI0
aI0
aI0
aI0
aI0
aI0
aI0
aI0
aI0
aI0
aI0
aI0
aI0
aI0
aI0
aI0
aI0
aI0
aI0
aI0
aI0
aI0
aI0
aI0
aI0
aI0
aI0
aI0
aI0
aI0
aI0
aI0
aI0
aI0
aI0
aI0
aI0
aI0
aI0
aI0
aI0
aI0
aI0
aI0
aI0
aI0
aI0
aI0
aI0
aI0
aI0
aI0
aI0
aI0
aI0
aI0
aI0
aI0
aI0
aI0
aI0
aI0
aI0
aI0
aI0
aI0
aI0
aI0
aI0
aI0
aI0
aI0
aI0
aI0
aI0
aI0
aI0
aI0
aI0
aI0
aI0
aI0
aI0
aI0
aI0
aI0
aI0
aI0
aI0
aI0
aI0
aI0
aa(lp266
I0
aI0
aI0
aI0
aI0
aI0
aI0
aI0
aI0
aI0
aI0
aI0
aI0
aI0
aI0
aI0
aI0
aI0
aI0
aI0
aI0
aI0
aI0
aI0
aI0
aI0
aI0
aI0
aI0
aI0
aI0
aI0
aI0
aI0
aI0
aI0
aI0
aI0
aI0
aI0
aI0
aI0
aI0
aI0
aI0
aI0
aI0
aI0
aI0
aI0
aI0
aI0
aI0
aI0
aI0
aI0
aI0
aI0
aI0
aI0
aI0
aI0
aI0
aI0
aI0
aI0
aI0
aI0
aI0
aI0
aI0
aI0
aI0
aI0
aI0
aI0
aI0
aI0
aI0
aI0
aI0
aI0
aI0
aI0
aI0
aI0
aI0
aI0
aI0
aI0
aI0
aI0
aI0
aI0
aI0
aI0
aI0
aI0
aI0
aI0
aI0
aI0
aI0
aI0
aI0
aI0
aI0
aI0
aI0
aI0
aI0
aI0
aI0
aI0
aa(lp267
I0
aI0
aI0
aI0
aI0
aI0
aI0
aI0
aI0
aI0
aI0
aI0
aI0
aI0
aI0
aI0
aI0
aI0
aI0
aI0
aI0
aI0
aI0
aI0
aI0
aI0
aI0
aI0
aI0
aI0
aI0
aI0
aI0
aI0
aI0
aI0
aI0
aI0
aI0
aI0
aI0
aI0
aI0
aI0
aI0
aI0
aI0
aI0
aI0
aI0
aI0
aI0
aI0
aI0
aI0
aI0
aI0
aI0
aI0
aI0
aI0
aI0
aI0
aI0
aI0
aI0
aI0
aI0
aI0
aI0
aI0
aI0
aI0
aI0
aI0
aI0
aI0
aI0
aI0
aI0
aI0
aI0
aI0
aI0
aI0
aI0
aI0
aI0
aI0
aI0
aI0
aI0
aI0
aI0
aI0
aI0
aI0
aI0
aI0
aI0
aI0
aI0
aI0
aI0
aI0
aI0
aI0
aI0
aI0
aI0
aI0
aI0
aI0
aI0
aa(lp268
I0
aI0
aI0
aI0
aI0
aI0
aI0
aI0
aI0
aI0
aI0
aI0
aI0
aI0
aI0
aI0
aI0
aI0
aI0
aI0
aI0
aI0
aI0
aI0
aI0
aI0
aI0
aI0
aI0
aI0
aI0
aI0
aI0
aI0
aI0
aI0
aI0
aI0
aI0
aI0
aI0
aI0
aI0
aI0
aI0
aI0
aI0
aI0
aI0
aI0
aI0
aI0
aI0
aI0
aI0
aI0
aI0
aI0
aI0
aI0
aI0
aI0
aI0
aI0
aI0
aI0
aI0
aI0
aI0
aI0
aI0
aI0
aI0
aI0
aI0
aI0
aI0
aI0
aI0
aI0
aI0
aI0
aI0
aI0
aI0
aI0
aI0
aI0
aI0
aI0
aI0
aI0
aI0
aI0
aI0
aI0
aI0
aI0
aI0
aI0
aI0
aI0
aI0
aI0
aI0
aI0
aI0
aI0
aI0
aI0
aI0
aI0
aI0
aI0
aa(lp269
I0
aI0
aI0
aI0
aI0
aI0
aI0
aI0
aI0
aI0
aI0
aI0
aI0
aI0
aI0
aI0
aI0
aI0
aI0
aI0
aI0
aI0
aI0
aI0
aI0
aI0
aI0
aI0
aI0
aI0
aI0
aI0
aI0
aI0
aI0
aI0
aI0
aI0
aI0
aI0
aI0
aI0
aI0
aI0
aI0
aI0
aI0
aI0
aI0
aI0
aI0
aI0
aI0
aI0
aI0
aI0
aI0
aI0
aI0
aI0
aI0
aI0
aI0
aI0
aI0
aI0
aI0
aI0
aI0
aI0
aI0
aI0
aI0
aI0
aI0
aI0
aI0
aI0
aI0
aI0
aI0
aI0
aI0
aI0
aI0
aI0
aI0
aI0
aI0
aI0
aI0
aI0
aI0
aI0
aI0
aI0
aI0
aI0
aI0
aI0
aI0
aI0
aI0
aI0
aI0
aI0
aI0
aI0
aI0
aI0
aI0
aI0
aI0
aI0
aa(lp270
I0
aI0
aI0
aI0
aI0
aI0
aI0
aI0
aI0
aI0
aI0
aI0
aI0
aI0
aI0
aI0
aI0
aI0
aI0
aI0
aI0
aI0
aI0
aI0
aI0
aI0
aI0
aI0
aI0
aI0
aI0
aI0
aI0
aI0
aI0
aI0
aI0
aI0
aI0
aI0
aI0
aI0
aI0
aI0
aI0
aI0
aI0
aI0
aI0
aI0
aI0
aI0
aI0
aI0
aI0
aI0
aI0
aI0
aI0
aI0
aI0
aI0
aI0
aI0
aI0
aI0
aI0
aI0
aI0
aI0
aI0
aI0
aI0
aI0
aI0
aI0
aI0
aI0
aI0
aI0
aI0
aI0
aI0
aI0
aI0
aI0
aI0
aI0
aI0
aI0
aI0
aI0
aI0
aI0
aI0
aI0
aI0
aI0
aI0
aI0
aI0
aI0
aI0
aI0
aI0
aI0
aI0
aI0
aI0
aI0
aI0
aI0
aI0
aI0
aa(lp271
I0
aI0
aI0
aI0
aI0
aI0
aI0
aI0
aI0
aI0
aI0
aI0
aI0
aI0
aI0
aI0
aI0
aI0
aI0
aI0
aI0
aI0
aI0
aI0
aI0
aI0
aI0
aI0
aI0
aI0
aI0
aI0
aI0
aI0
aI0
aI0
aI0
aI0
aI0
aI0
aI0
aI0
aI0
aI0
aI0
aI0
aI0
aI0
aI0
aI0
aI0
aI0
aI0
aI0
aI0
aI0
aI0
aI0
aI0
aI0
aI0
aI0
aI0
aI0
aI0
aI0
aI0
aI0
aI0
aI0
aI0
aI0
aI0
aI0
aI0
aI0
aI0
aI0
aI0
aI0
aI0
aI0
aI0
aI0
aI0
aI0
aI0
aI0
aI0
aI0
aI0
aI0
aI0
aI0
aI0
aI0
aI0
aI0
aI0
aI0
aI0
aI0
aI0
aI0
aI0
aI0
aI0
aI0
aI0
aI0
aI0
aI0
aI0
aI0
aa(lp272
I0
aI0
aI0
aI0
aI0
aI0
aI0
aI0
aI0
aI0
aI0
aI0
aI0
aI0
aI0
aI0
aI0
aI0
aI0
aI0
aI0
aI0
aI0
aI0
aI0
aI0
aI0
aI0
aI0
aI0
aI0
aI0
aI0
aI0
aI0
aI0
aI0
aI0
aI0
aI0
aI0
aI0
aI0
aI0
aI0
aI0
aI0
aI0
aI0
aI0
aI0
aI0
aI0
aI0
aI0
aI0
aI0
aI0
aI0
aI0
aI0
aI0
aI0
aI0
aI0
aI0
aI0
aI0
aI0
aI0
aI0
aI0
aI0
aI0
aI0
aI0
aI0
aI0
aI0
aI0
aI0
aI0
aI0
aI0
aI0
aI0
aI0
aI0
aI0
aI0
aI0
aI0
aI0
aI0
aI0
aI0
aI0
aI0
aI0
aI0
aI0
aI0
aI0
aI0
aI0
aI0
aI0
aI0
aI0
aI0
aI0
aI0
aI0
aI0
aasS'animati'
p273
(lp274
sS'cammina'
p275
I01
ssS'quale_mappa'
p276
V.\u005cmappe\u005cmappe_da_unire\u005c001-1.tmx
p277
sV.\u005cmappe\u005cmappe_da_unire\u005cimbocco-deserto-monte-citta.tmx
p278
(dp279
S'dormi'
p280
I00
sS'matr_layer_raccolto'
p281
(lp282
carray
array
p283
(S'I'
p284
(lp285
L0L
aL0L
aL0L
aL0L
aL0L
aL0L
aL0L
aL0L
aL0L
aL0L
aL0L
aL0L
aL0L
aL0L
aL0L
aL0L
aL0L
aL0L
aL0L
aL0L
aL0L
aL0L
aL0L
aL0L
aL0L
aL0L
aL0L
aL0L
aL0L
aL0L
aL0L
aL0L
aL0L
aL0L
aL0L
aL0L
aL0L
aL0L
aL0L
aL0L
aL0L
aL0L
aL0L
aL0L
aL0L
aL0L
aL0L
aL0L
aL0L
aL0L
aL0L
aL0L
aL0L
aL0L
aL0L
aL0L
aL0L
aL0L
aL0L
aL0L
aL0L
aL0L
aL0L
aL0L
aL0L
aL0L
aL0L
aL0L
aL0L
aL0L
aL0L
aL0L
aL0L
aL0L
aL0L
aL0L
aL0L
aL0L
aL0L
aL0L
aL0L
aL0L
aL0L
aL0L
aL0L
aL0L
aL0L
aL0L
aL0L
aL0L
aL0L
aL0L
aL0L
aL0L
aL0L
aL0L
aL0L
aL0L
aL0L
aL0L
aL0L
aL0L
aL0L
aL0L
aL0L
aL0L
aL0L
aL0L
aL0L
aL0L
aL0L
aL0L
aL0L
aL0L
aL0L
aL0L
aL0L
aL0L
aL0L
aL0L
aL0L
aL0L
aL0L
aL0L
aL0L
aL0L
aL0L
aL0L
atp286
Rp287
ag283
(g284
(lp288
L0L
aL0L
aL0L
aL0L
aL0L
aL0L
aL0L
aL0L
aL0L
aL0L
aL0L
aL0L
aL0L
aL0L
aL0L
aL0L
aL0L
aL0L
aL0L
aL0L
aL0L
aL0L
aL0L
aL0L
aL0L
aL0L
aL0L
aL0L
aL0L
aL0L
aL0L
aL0L
aL0L
aL0L
aL0L
aL0L
aL0L
aL0L
aL0L
aL0L
aL0L
aL0L
aL0L
aL0L
aL0L
aL0L
aL0L
aL0L
aL0L
aL0L
aL0L
aL0L
aL0L
aL0L
aL0L
aL0L
aL0L
aL0L
aL0L
aL0L
aL0L
aL0L
aL0L
aL0L
aL0L
aL0L
aL0L
aL0L
aL0L
aL0L
aL0L
aL0L
aL0L
aL0L
aL0L
aL0L
aL0L
aL0L
aL0L
aL0L
aL0L
aL0L
aL0L
aL0L
aL0L
aL0L
aL0L
aL0L
aL0L
aL0L
aL0L
aL0L
aL0L
aL0L
aL0L
aL0L
aL0L
aL0L
aL0L
aL0L
aL0L
aL0L
aL0L
aL0L
aL0L
aL0L
aL0L
aL0L
aL0L
aL0L
aL0L
aL0L
aL0L
aL0L
aL0L
aL0L
aL0L
aL0L
aL0L
aL0L
aL0L
aL0L
aL0L
aL0L
aL0L
aL0L
aL0L
aL0L
atp289
Rp290
ag283
(g284
(lp291
L0L
aL0L
aL0L
aL0L
aL0L
aL0L
aL0L
aL0L
aL0L
aL0L
aL0L
aL0L
aL0L
aL0L
aL0L
aL0L
aL0L
aL0L
aL0L
aL0L
aL0L
aL0L
aL0L
aL0L
aL0L
aL0L
aL0L
aL0L
aL0L
aL0L
aL0L
aL0L
aL0L
aL0L
aL0L
aL0L
aL0L
aL0L
aL0L
aL0L
aL0L
aL0L
aL0L
aL0L
aL0L
aL0L
aL0L
aL0L
aL0L
aL0L
aL0L
aL0L
aL0L
aL0L
aL0L
aL0L
aL0L
aL0L
aL0L
aL0L
aL0L
aL0L
aL0L
aL0L
aL0L
aL0L
aL0L
aL0L
aL0L
aL0L
aL0L
aL0L
aL0L
aL0L
aL0L
aL0L
aL0L
aL0L
aL0L
aL0L
aL0L
aL0L
aL0L
aL0L
aL0L
aL0L
aL0L
aL0L
aL0L
aL0L
aL0L
aL0L
aL0L
aL0L
aL0L
aL0L
aL0L
aL0L
aL0L
aL0L
aL0L
aL0L
aL0L
aL0L
aL0L
aL0L
aL0L
aL0L
aL0L
aL0L
aL0L
aL0L
aL0L
aL0L
aL0L
aL0L
aL0L
aL0L
aL0L
aL0L
aL0L
aL0L
aL0L
aL0L
aL0L
aL0L
aL0L
aL0L
atp292
Rp293
ag283
(g284
(lp294
L0L
aL0L
aL0L
aL0L
aL0L
aL0L
aL0L
aL0L
aL0L
aL0L
aL0L
aL0L
aL0L
aL0L
aL0L
aL0L
aL0L
aL0L
aL0L
aL0L
aL0L
aL0L
aL0L
aL0L
aL0L
aL0L
aL0L
aL0L
aL0L
aL0L
aL0L
aL0L
aL0L
aL0L
aL0L
aL0L
aL0L
aL0L
aL0L
aL0L
aL0L
aL0L
aL0L
aL0L
aL0L
aL0L
aL0L
aL0L
aL0L
aL0L
aL0L
aL0L
aL0L
aL0L
aL0L
aL0L
aL0L
aL0L
aL0L
aL0L
aL0L
aL0L
aL0L
aL0L
aL0L
aL0L
aL0L
aL0L
aL0L
aL0L
aL0L
aL0L
aL0L
aL0L
aL0L
aL0L
aL0L
aL0L
aL0L
aL0L
aL0L
aL0L
aL0L
aL0L
aL0L
aL0L
aL0L
aL0L
aL0L
aL0L
aL0L
aL0L
aL0L
aL0L
aL0L
aL0L
aL0L
aL0L
aL0L
aL0L
aL0L
aL0L
aL0L
aL0L
aL0L
aL0L
aL0L
aL0L
aL0L
aL0L
aL0L
aL0L
aL0L
aL0L
aL0L
aL0L
aL0L
aL0L
aL0L
aL0L
aL0L
aL0L
aL0L
aL0L
aL0L
aL0L
aL0L
aL0L
atp295
Rp296
ag283
(g284
(lp297
L0L
aL0L
aL0L
aL0L
aL0L
aL0L
aL0L
aL0L
aL0L
aL0L
aL0L
aL0L
aL0L
aL0L
aL0L
aL0L
aL0L
aL0L
aL0L
aL0L
aL0L
aL0L
aL0L
aL0L
aL0L
aL0L
aL0L
aL0L
aL0L
aL0L
aL0L
aL0L
aL0L
aL0L
aL0L
aL0L
aL0L
aL0L
aL0L
aL0L
aL0L
aL0L
aL0L
aL0L
aL0L
aL0L
aL0L
aL0L
aL0L
aL0L
aL0L
aL0L
aL0L
aL0L
aL0L
aL0L
aL0L
aL0L
aL0L
aL0L
aL0L
aL0L
aL0L
aL0L
aL0L
aL0L
aL0L
aL0L
aL0L
aL0L
aL0L
aL0L
aL0L
aL0L
aL0L
aL0L
aL0L
aL0L
aL0L
aL0L
aL0L
aL0L
aL0L
aL0L
aL0L
aL0L
aL0L
aL0L
aL0L
aL0L
aL0L
aL0L
aL0L
aL0L
aL0L
aL0L
aL0L
aL0L
aL0L
aL0L
aL0L
aL0L
aL0L
aL0L
aL0L
aL0L
aL0L
aL0L
aL0L
aL0L
aL0L
aL0L
aL0L
aL0L
aL0L
aL0L
aL0L
aL0L
aL0L
aL0L
aL0L
aL0L
aL0L
aL0L
aL0L
aL0L
aL0L
aL0L
atp298
Rp299
ag283
(g284
(lp300
L0L
aL0L
aL0L
aL0L
aL0L
aL0L
aL0L
aL0L
aL0L
aL0L
aL0L
aL0L
aL0L
aL0L
aL0L
aL0L
aL0L
aL0L
aL0L
aL0L
aL0L
aL0L
aL0L
aL0L
aL0L
aL0L
aL0L
aL0L
aL0L
aL0L
aL0L
aL0L
aL0L
aL0L
aL0L
aL0L
aL0L
aL0L
aL0L
aL0L
aL0L
aL0L
aL0L
aL0L
aL0L
aL0L
aL0L
aL0L
aL0L
aL0L
aL0L
aL0L
aL0L
aL0L
aL0L
aL0L
aL0L
aL0L
aL0L
aL0L
aL0L
aL0L
aL0L
aL0L
aL0L
aL0L
aL0L
aL0L
aL0L
aL0L
aL0L
aL0L
aL0L
aL0L
aL0L
aL0L
aL0L
aL0L
aL0L
aL0L
aL0L
aL0L
aL0L
aL0L
aL0L
aL0L
aL0L
aL0L
aL0L
aL0L
aL0L
aL0L
aL0L
aL0L
aL0L
aL0L
aL0L
aL0L
aL0L
aL0L
aL0L
aL0L
aL0L
aL0L
aL0L
aL0L
aL0L
aL0L
aL0L
aL0L
aL0L
aL0L
aL0L
aL0L
aL0L
aL0L
aL0L
aL0L
aL0L
aL0L
aL0L
aL0L
aL0L
aL0L
aL0L
aL0L
aL0L
aL0L
atp301
Rp302
ag283
(g284
(lp303
L0L
aL0L
aL0L
aL0L
aL0L
aL0L
aL0L
aL0L
aL0L
aL0L
aL0L
aL0L
aL0L
aL0L
aL0L
aL0L
aL0L
aL0L
aL0L
aL0L
aL0L
aL0L
aL0L
aL0L
aL0L
aL0L
aL0L
aL0L
aL0L
aL0L
aL0L
aL0L
aL0L
aL0L
aL0L
aL0L
aL0L
aL0L
aL0L
aL0L
aL0L
aL0L
aL0L
aL0L
aL0L
aL0L
aL0L
aL0L
aL0L
aL0L
aL0L
aL0L
aL0L
aL0L
aL0L
aL0L
aL0L
aL0L
aL0L
aL0L
aL0L
aL0L
aL0L
aL0L
aL0L
aL0L
aL0L
aL0L
aL0L
aL0L
aL0L
aL0L
aL0L
aL0L
aL0L
aL0L
aL0L
aL0L
aL0L
aL0L
aL0L
aL0L
aL0L
aL0L
aL0L
aL0L
aL0L
aL0L
aL0L
aL0L
aL0L
aL0L
aL0L
aL0L
aL0L
aL0L
aL0L
aL0L
aL0L
aL0L
aL0L
aL0L
aL0L
aL0L
aL0L
aL0L
aL0L
aL0L
aL0L
aL0L
aL0L
aL0L
aL0L
aL0L
aL0L
aL0L
aL0L
aL0L
aL0L
aL0L
aL0L
aL0L
aL0L
aL0L
aL0L
aL0L
aL0L
aL0L
atp304
Rp305
ag283
(g284
(lp306
L0L
aL0L
aL0L
aL0L
aL0L
aL0L
aL0L
aL0L
aL0L
aL0L
aL0L
aL0L
aL0L
aL0L
aL0L
aL0L
aL0L
aL0L
aL0L
aL0L
aL0L
aL0L
aL0L
aL0L
aL0L
aL0L
aL0L
aL0L
aL0L
aL0L
aL0L
aL0L
aL0L
aL0L
aL0L
aL0L
aL0L
aL0L
aL0L
aL0L
aL0L
aL0L
aL0L
aL0L
aL0L
aL0L
aL0L
aL0L
aL0L
aL0L
aL0L
aL0L
aL0L
aL0L
aL0L
aL0L
aL0L
aL0L
aL0L
aL0L
aL0L
aL0L
aL0L
aL0L
aL0L
aL0L
aL0L
aL0L
aL0L
aL0L
aL0L
aL0L
aL0L
aL0L
aL0L
aL0L
aL0L
aL0L
aL0L
aL0L
aL0L
aL0L
aL0L
aL0L
aL0L
aL0L
aL0L
aL0L
aL0L
aL0L
aL0L
aL0L
aL0L
aL0L
aL0L
aL0L
aL0L
aL0L
aL0L
aL0L
aL0L
aL0L
aL0L
aL0L
aL0L
aL0L
aL0L
aL0L
aL0L
aL0L
aL0L
aL0L
aL0L
aL0L
aL0L
aL0L
aL0L
aL0L
aL0L
aL0L
aL0L
aL0L
aL0L
aL0L
aL0L
aL0L
aL0L
aL0L
atp307
Rp308
ag283
(g284
(lp309
L0L
aL0L
aL0L
aL0L
aL0L
aL0L
aL0L
aL0L
aL0L
aL0L
aL0L
aL0L
aL0L
aL0L
aL0L
aL0L
aL0L
aL0L
aL0L
aL0L
aL0L
aL0L
aL0L
aL0L
aL0L
aL0L
aL0L
aL0L
aL0L
aL0L
aL0L
aL0L
aL0L
aL0L
aL0L
aL0L
aL0L
aL0L
aL0L
aL0L
aL0L
aL0L
aL0L
aL0L
aL0L
aL0L
aL0L
aL0L
aL0L
aL0L
aL0L
aL0L
aL0L
aL0L
aL0L
aL0L
aL0L
aL0L
aL0L
aL0L
aL0L
aL0L
aL0L
aL0L
aL0L
aL0L
aL0L
aL0L
aL0L
aL0L
aL0L
aL0L
aL0L
aL0L
aL0L
aL0L
aL0L
aL0L
aL0L
aL0L
aL0L
aL0L
aL0L
aL0L
aL0L
aL0L
aL0L
aL0L
aL0L
aL0L
aL0L
aL0L
aL0L
aL0L
aL0L
aL0L
aL0L
aL0L
aL0L
aL0L
aL0L
aL0L
aL0L
aL0L
aL0L
aL0L
aL0L
aL0L
aL0L
aL0L
aL0L
aL0L
aL0L
aL0L
aL0L
aL0L
aL0L
aL0L
aL0L
aL0L
aL0L
aL0L
aL0L
aL0L
aL0L
aL0L
aL0L
aL0L
atp310
Rp311
ag283
(g284
(lp312
L0L
aL0L
aL0L
aL0L
aL0L
aL0L
aL0L
aL0L
aL0L
aL0L
aL0L
aL0L
aL0L
aL0L
aL0L
aL0L
aL0L
aL0L
aL0L
aL0L
aL0L
aL0L
aL0L
aL0L
aL0L
aL0L
aL0L
aL0L
aL0L
aL0L
aL0L
aL0L
aL0L
aL0L
aL0L
aL0L
aL0L
aL0L
aL0L
aL0L
aL0L
aL0L
aL0L
aL0L
aL0L
aL0L
aL0L
aL0L
aL0L
aL0L
aL0L
aL0L
aL0L
aL0L
aL0L
aL0L
aL0L
aL0L
aL0L
aL0L
aL0L
aL0L
aL0L
aL0L
aL0L
aL0L
aL0L
aL0L
aL0L
aL0L
aL0L
aL0L
aL0L
aL0L
aL0L
aL0L
aL0L
aL0L
aL0L
aL0L
aL0L
aL0L
aL0L
aL0L
aL0L
aL0L
aL0L
aL0L
aL0L
aL0L
aL0L
aL0L
aL0L
aL0L
aL0L
aL0L
aL0L
aL0L
aL0L
aL0L
aL0L
aL0L
aL0L
aL0L
aL0L
aL0L
aL0L
aL0L
aL0L
aL0L
aL0L
aL0L
aL0L
aL0L
aL0L
aL0L
aL0L
aL0L
aL0L
aL0L
aL0L
aL0L
aL0L
aL0L
aL0L
aL0L
aL0L
aL0L
atp313
Rp314
ag283
(g284
(lp315
L0L
aL0L
aL0L
aL0L
aL0L
aL0L
aL0L
aL0L
aL0L
aL0L
aL0L
aL0L
aL0L
aL0L
aL0L
aL0L
aL0L
aL0L
aL0L
aL0L
aL0L
aL0L
aL0L
aL0L
aL0L
aL0L
aL0L
aL0L
aL0L
aL0L
aL0L
aL0L
aL0L
aL0L
aL0L
aL0L
aL0L
aL0L
aL0L
aL0L
aL0L
aL0L
aL0L
aL0L
aL0L
aL0L
aL0L
aL0L
aL0L
aL0L
aL0L
aL0L
aL0L
aL0L
aL0L
aL0L
aL0L
aL0L
aL0L
aL0L
aL0L
aL0L
aL0L
aL0L
aL0L
aL0L
aL0L
aL0L
aL0L
aL0L
aL0L
aL0L
aL0L
aL0L
aL0L
aL0L
aL0L
aL0L
aL0L
aL0L
aL0L
aL0L
aL0L
aL0L
aL0L
aL0L
aL0L
aL0L
aL0L
aL0L
aL0L
aL0L
aL0L
aL0L
aL0L
aL0L
aL0L
aL0L
aL0L
aL0L
aL0L
aL0L
aL0L
aL0L
aL0L
aL0L
aL0L
aL0L
aL0L
aL0L
aL0L
aL0L
aL0L
aL0L
aL0L
aL0L
aL0L
aL0L
aL0L
aL0L
aL0L
aL0L
aL0L
aL0L
aL0L
aL0L
aL0L
aL0L
atp316
Rp317
ag283
(g284
(lp318
L0L
aL0L
aL0L
aL0L
aL0L
aL0L
aL0L
aL0L
aL0L
aL0L
aL0L
aL0L
aL0L
aL0L
aL0L
aL0L
aL0L
aL0L
aL0L
aL0L
aL0L
aL0L
aL0L
aL0L
aL0L
aL0L
aL0L
aL0L
aL0L
aL0L
aL0L
aL0L
aL0L
aL0L
aL0L
aL0L
aL0L
aL0L
aL0L
aL0L
aL0L
aL0L
aL0L
aL0L
aL0L
aL0L
aL0L
aL0L
aL0L
aL0L
aL0L
aL0L
aL0L
aL0L
aL0L
aL0L
aL0L
aL0L
aL0L
aL0L
aL0L
aL0L
aL0L
aL0L
aL0L
aL0L
aL0L
aL0L
aL0L
aL0L
aL0L
aL0L
aL0L
aL0L
aL0L
aL0L
aL0L
aL0L
aL0L
aL0L
aL0L
aL0L
aL0L
aL0L
aL0L
aL0L
aL0L
aL0L
aL0L
aL0L
aL0L
aL0L
aL0L
aL0L
aL0L
aL0L
aL0L
aL0L
aL0L
aL0L
aL0L
aL0L
aL0L
aL0L
aL0L
aL0L
aL0L
aL0L
aL0L
aL0L
aL0L
aL0L
aL0L
aL0L
aL0L
aL0L
aL0L
aL0L
aL0L
aL0L
aL0L
aL0L
aL0L
aL0L
aL0L
aL0L
aL0L
aL0L
atp319
Rp320
ag283
(g284
(lp321
L0L
aL0L
aL0L
aL0L
aL0L
aL0L
aL0L
aL0L
aL0L
aL0L
aL0L
aL0L
aL0L
aL0L
aL0L
aL0L
aL0L
aL0L
aL0L
aL0L
aL0L
aL0L
aL0L
aL0L
aL0L
aL0L
aL0L
aL0L
aL0L
aL0L
aL0L
aL0L
aL0L
aL0L
aL0L
aL0L
aL0L
aL0L
aL0L
aL0L
aL0L
aL0L
aL0L
aL0L
aL0L
aL0L
aL0L
aL0L
aL0L
aL0L
aL0L
aL0L
aL0L
aL0L
aL0L
aL0L
aL0L
aL0L
aL0L
aL0L
aL0L
aL0L
aL0L
aL0L
aL0L
aL0L
aL0L
aL0L
aL0L
aL0L
aL0L
aL0L
aL0L
aL0L
aL0L
aL0L
aL0L
aL0L
aL0L
aL0L
aL0L
aL0L
aL0L
aL0L
aL0L
aL0L
aL0L
aL0L
aL0L
aL0L
aL0L
aL0L
aL0L
aL0L
aL0L
aL0L
aL0L
aL0L
aL0L
aL0L
aL0L
aL0L
aL0L
aL0L
aL0L
aL0L
aL0L
aL0L
aL0L
aL0L
aL0L
aL0L
aL0L
aL0L
aL0L
aL0L
aL0L
aL0L
aL0L
aL0L
aL0L
aL0L
aL0L
aL0L
aL0L
aL0L
aL0L
aL0L
atp322
Rp323
ag283
(g284
(lp324
L0L
aL0L
aL0L
aL0L
aL0L
aL0L
aL0L
aL0L
aL0L
aL0L
aL0L
aL0L
aL0L
aL0L
aL0L
aL0L
aL0L
aL0L
aL0L
aL0L
aL0L
aL0L
aL0L
aL0L
aL0L
aL0L
aL0L
aL0L
aL0L
aL0L
aL0L
aL0L
aL0L
aL0L
aL0L
aL0L
aL0L
aL0L
aL0L
aL0L
aL0L
aL0L
aL0L
aL0L
aL0L
aL0L
aL0L
aL0L
aL0L
aL0L
aL0L
aL0L
aL0L
aL0L
aL0L
aL0L
aL0L
aL0L
aL0L
aL0L
aL0L
aL0L
aL0L
aL0L
aL0L
aL0L
aL0L
aL0L
aL0L
aL0L
aL0L
aL0L
aL0L
aL0L
aL0L
aL0L
aL0L
aL0L
aL0L
aL0L
aL0L
aL0L
aL0L
aL0L
aL0L
aL0L
aL0L
aL0L
aL0L
aL0L
aL0L
aL0L
aL0L
aL0L
aL0L
aL0L
aL0L
aL0L
aL0L
aL0L
aL0L
aL0L
aL0L
aL0L
aL0L
aL0L
aL0L
aL0L
aL0L
aL0L
aL0L
aL0L
aL0L
aL0L
aL0L
aL0L
aL0L
aL0L
aL0L
aL0L
aL0L
aL0L
aL0L
aL0L
aL0L
aL0L
aL0L
aL0L
atp325
Rp326
ag283
(g284
(lp327
L0L
aL0L
aL0L
aL0L
aL0L
aL0L
aL0L
aL0L
aL0L
aL0L
aL0L
aL0L
aL0L
aL0L
aL0L
aL0L
aL0L
aL0L
aL0L
aL0L
aL0L
aL0L
aL0L
aL0L
aL0L
aL0L
aL0L
aL0L
aL0L
aL0L
aL0L
aL0L
aL0L
aL0L
aL0L
aL0L
aL0L
aL0L
aL0L
aL0L
aL0L
aL0L
aL0L
aL0L
aL0L
aL0L
aL0L
aL0L
aL0L
aL0L
aL0L
aL0L
aL0L
aL0L
aL0L
aL0L
aL0L
aL0L
aL0L
aL0L
aL0L
aL0L
aL0L
aL0L
aL0L
aL0L
aL0L
aL0L
aL0L
aL0L
aL0L
aL0L
aL0L
aL0L
aL0L
aL0L
aL0L
aL0L
aL0L
aL0L
aL0L
aL0L
aL0L
aL0L
aL0L
aL0L
aL0L
aL0L
aL0L
aL0L
aL0L
aL0L
aL0L
aL0L
aL0L
aL0L
aL0L
aL0L
aL0L
aL0L
aL0L
aL0L
aL0L
aL0L
aL0L
aL0L
aL0L
aL0L
aL0L
aL0L
aL0L
aL0L
aL0L
aL0L
aL0L
aL0L
aL0L
aL0L
aL0L
aL0L
aL0L
aL0L
aL0L
aL0L
aL0L
aL0L
aL0L
aL0L
atp328
Rp329
ag283
(g284
(lp330
L0L
aL0L
aL0L
aL0L
aL0L
aL0L
aL0L
aL0L
aL0L
aL0L
aL0L
aL0L
aL0L
aL0L
aL0L
aL0L
aL0L
aL0L
aL0L
aL0L
aL0L
aL0L
aL0L
aL0L
aL0L
aL0L
aL0L
aL0L
aL0L
aL0L
aL0L
aL0L
aL0L
aL0L
aL0L
aL0L
aL0L
aL0L
aL0L
aL0L
aL0L
aL0L
aL0L
aL0L
aL0L
aL0L
aL0L
aL0L
aL0L
aL0L
aL0L
aL0L
aL0L
aL0L
aL0L
aL0L
aL0L
aL0L
aL0L
aL0L
aL0L
aL0L
aL0L
aL0L
aL0L
aL0L
aL0L
aL0L
aL0L
aL0L
aL0L
aL0L
aL0L
aL0L
aL0L
aL0L
aL0L
aL0L
aL0L
aL0L
aL0L
aL0L
aL0L
aL0L
aL0L
aL0L
aL0L
aL0L
aL0L
aL0L
aL0L
aL0L
aL0L
aL0L
aL0L
aL0L
aL0L
aL0L
aL0L
aL0L
aL0L
aL0L
aL0L
aL0L
aL0L
aL0L
aL0L
aL0L
aL0L
aL0L
aL0L
aL0L
aL0L
aL0L
aL0L
aL0L
aL0L
aL0L
aL0L
aL0L
aL0L
aL0L
aL0L
aL0L
aL0L
aL0L
aL0L
aL0L
atp331
Rp332
ag283
(g284
(lp333
L0L
aL0L
aL0L
aL0L
aL0L
aL0L
aL0L
aL0L
aL0L
aL0L
aL0L
aL0L
aL0L
aL0L
aL0L
aL0L
aL0L
aL0L
aL0L
aL0L
aL0L
aL0L
aL0L
aL0L
aL0L
aL0L
aL0L
aL0L
aL0L
aL0L
aL0L
aL0L
aL0L
aL0L
aL0L
aL0L
aL0L
aL0L
aL0L
aL0L
aL0L
aL0L
aL0L
aL0L
aL0L
aL0L
aL0L
aL0L
aL0L
aL0L
aL0L
aL0L
aL0L
aL0L
aL0L
aL0L
aL0L
aL0L
aL0L
aL0L
aL0L
aL0L
aL0L
aL0L
aL0L
aL0L
aL0L
aL0L
aL0L
aL0L
aL0L
aL0L
aL0L
aL0L
aL0L
aL0L
aL0L
aL0L
aL0L
aL0L
aL0L
aL0L
aL0L
aL0L
aL0L
aL0L
aL0L
aL0L
aL0L
aL0L
aL0L
aL0L
aL0L
aL0L
aL0L
aL0L
aL0L
aL0L
aL0L
aL0L
aL0L
aL0L
aL0L
aL0L
aL0L
aL0L
aL0L
aL0L
aL0L
aL0L
aL0L
aL0L
aL0L
aL0L
aL0L
aL0L
aL0L
aL0L
aL0L
aL0L
aL0L
aL0L
aL0L
aL0L
aL0L
aL0L
aL0L
aL0L
atp334
Rp335
ag283
(g284
(lp336
L0L
aL0L
aL0L
aL0L
aL0L
aL0L
aL0L
aL0L
aL0L
aL0L
aL0L
aL0L
aL0L
aL0L
aL0L
aL0L
aL0L
aL0L
aL0L
aL0L
aL0L
aL0L
aL0L
aL0L
aL0L
aL0L
aL0L
aL0L
aL0L
aL0L
aL0L
aL0L
aL0L
aL0L
aL0L
aL0L
aL0L
aL0L
aL0L
aL0L
aL0L
aL0L
aL0L
aL0L
aL0L
aL0L
aL0L
aL0L
aL0L
aL0L
aL0L
aL0L
aL0L
aL0L
aL0L
aL0L
aL0L
aL0L
aL0L
aL0L
aL0L
aL0L
aL0L
aL0L
aL0L
aL0L
aL0L
aL0L
aL0L
aL0L
aL0L
aL0L
aL0L
aL0L
aL0L
aL0L
aL0L
aL0L
aL0L
aL0L
aL0L
aL0L
aL0L
aL0L
aL0L
aL0L
aL0L
aL0L
aL0L
aL0L
aL0L
aL0L
aL0L
aL0L
aL0L
aL0L
aL0L
aL0L
aL0L
aL0L
aL0L
aL0L
aL0L
aL0L
aL0L
aL0L
aL0L
aL0L
aL0L
aL0L
aL0L
aL0L
aL0L
aL0L
aL0L
aL0L
aL0L
aL0L
aL0L
aL0L
aL0L
aL0L
aL0L
aL0L
aL0L
aL0L
aL0L
aL0L
atp337
Rp338
ag283
(g284
(lp339
L0L
aL0L
aL0L
aL0L
aL0L
aL0L
aL0L
aL0L
aL0L
aL0L
aL0L
aL0L
aL0L
aL0L
aL0L
aL0L
aL0L
aL0L
aL0L
aL0L
aL0L
aL0L
aL0L
aL0L
aL0L
aL0L
aL0L
aL0L
aL0L
aL0L
aL0L
aL0L
aL0L
aL0L
aL0L
aL0L
aL0L
aL0L
aL0L
aL0L
aL0L
aL0L
aL0L
aL0L
aL0L
aL0L
aL0L
aL0L
aL0L
aL0L
aL0L
aL0L
aL0L
aL0L
aL0L
aL0L
aL0L
aL0L
aL0L
aL0L
aL0L
aL0L
aL0L
aL0L
aL0L
aL0L
aL0L
aL0L
aL0L
aL0L
aL0L
aL0L
aL0L
aL0L
aL0L
aL0L
aL0L
aL0L
aL0L
aL0L
aL0L
aL0L
aL0L
aL0L
aL0L
aL0L
aL0L
aL0L
aL0L
aL0L
aL0L
aL0L
aL0L
aL0L
aL0L
aL0L
aL0L
aL0L
aL0L
aL0L
aL0L
aL0L
aL0L
aL0L
aL0L
aL0L
aL0L
aL0L
aL0L
aL0L
aL0L
aL0L
aL0L
aL0L
aL0L
aL0L
aL0L
aL0L
aL0L
aL0L
aL0L
aL0L
aL0L
aL0L
aL0L
aL0L
aL0L
aL0L
atp340
Rp341
ag283
(g284
(lp342
L0L
aL0L
aL0L
aL0L
aL0L
aL0L
aL0L
aL0L
aL0L
aL0L
aL0L
aL0L
aL0L
aL0L
aL0L
aL0L
aL0L
aL0L
aL0L
aL0L
aL0L
aL0L
aL0L
aL0L
aL0L
aL0L
aL0L
aL0L
aL0L
aL0L
aL0L
aL0L
aL0L
aL0L
aL0L
aL0L
aL0L
aL0L
aL0L
aL0L
aL0L
aL0L
aL0L
aL0L
aL0L
aL0L
aL0L
aL0L
aL0L
aL0L
aL0L
aL0L
aL0L
aL0L
aL0L
aL0L
aL0L
aL0L
aL0L
aL0L
aL0L
aL0L
aL0L
aL0L
aL0L
aL0L
aL0L
aL0L
aL0L
aL0L
aL0L
aL0L
aL0L
aL0L
aL0L
aL0L
aL0L
aL0L
aL0L
aL0L
aL0L
aL0L
aL0L
aL0L
aL0L
aL0L
aL0L
aL0L
aL0L
aL0L
aL0L
aL0L
aL0L
aL0L
aL0L
aL0L
aL0L
aL0L
aL0L
aL0L
aL0L
aL0L
aL0L
aL0L
aL0L
aL0L
aL0L
aL0L
aL0L
aL0L
aL0L
aL0L
aL0L
aL0L
aL0L
aL0L
aL0L
aL0L
aL0L
aL0L
aL0L
aL0L
aL0L
aL0L
aL0L
aL0L
aL0L
aL0L
atp343
Rp344
ag283
(g284
(lp345
L0L
aL0L
aL0L
aL0L
aL0L
aL0L
aL0L
aL0L
aL0L
aL0L
aL0L
aL0L
aL0L
aL0L
aL0L
aL0L
aL0L
aL0L
aL0L
aL0L
aL0L
aL0L
aL0L
aL0L
aL0L
aL0L
aL0L
aL0L
aL0L
aL0L
aL0L
aL0L
aL0L
aL0L
aL0L
aL0L
aL0L
aL0L
aL0L
aL0L
aL0L
aL0L
aL0L
aL0L
aL0L
aL0L
aL0L
aL0L
aL0L
aL0L
aL0L
aL0L
aL0L
aL0L
aL0L
aL0L
aL0L
aL0L
aL0L
aL0L
aL0L
aL0L
aL0L
aL0L
aL0L
aL0L
aL0L
aL0L
aL0L
aL0L
aL0L
aL0L
aL0L
aL0L
aL0L
aL0L
aL0L
aL0L
aL0L
aL0L
aL0L
aL0L
aL0L
aL0L
aL0L
aL0L
aL0L
aL0L
aL0L
aL0L
aL0L
aL0L
aL0L
aL0L
aL0L
aL0L
aL0L
aL0L
aL0L
aL0L
aL0L
aL0L
aL0L
aL0L
aL0L
aL0L
aL0L
aL0L
aL0L
aL0L
aL0L
aL0L
aL0L
aL0L
aL0L
aL0L
aL0L
aL0L
aL0L
aL0L
aL0L
aL0L
aL0L
aL0L
aL0L
aL0L
aL0L
aL0L
atp346
Rp347
ag283
(g284
(lp348
L0L
aL0L
aL0L
aL0L
aL0L
aL0L
aL0L
aL0L
aL0L
aL0L
aL0L
aL0L
aL0L
aL0L
aL0L
aL0L
aL0L
aL0L
aL0L
aL0L
aL0L
aL0L
aL0L
aL0L
aL0L
aL0L
aL0L
aL0L
aL0L
aL0L
aL0L
aL0L
aL0L
aL0L
aL0L
aL0L
aL0L
aL0L
aL0L
aL0L
aL0L
aL0L
aL0L
aL0L
aL0L
aL0L
aL0L
aL0L
aL0L
aL0L
aL0L
aL0L
aL0L
aL0L
aL0L
aL0L
aL0L
aL0L
aL0L
aL0L
aL0L
aL0L
aL0L
aL0L
aL0L
aL0L
aL0L
aL0L
aL0L
aL0L
aL0L
aL0L
aL0L
aL0L
aL0L
aL0L
aL0L
aL0L
aL0L
aL0L
aL0L
aL0L
aL0L
aL0L
aL0L
aL0L
aL0L
aL0L
aL0L
aL0L
aL0L
aL0L
aL0L
aL0L
aL0L
aL0L
aL0L
aL0L
aL0L
aL0L
aL0L
aL0L
aL0L
aL0L
aL0L
aL0L
aL0L
aL0L
aL0L
aL0L
aL0L
aL0L
aL0L
aL0L
aL0L
aL0L
aL0L
aL0L
aL0L
aL0L
aL0L
aL0L
aL0L
aL0L
aL0L
aL0L
aL0L
aL0L
atp349
Rp350
ag283
(g284
(lp351
L0L
aL0L
aL0L
aL0L
aL0L
aL0L
aL0L
aL0L
aL0L
aL0L
aL0L
aL0L
aL0L
aL0L
aL0L
aL0L
aL0L
aL0L
aL0L
aL0L
aL0L
aL0L
aL0L
aL0L
aL0L
aL0L
aL0L
aL0L
aL0L
aL0L
aL0L
aL0L
aL0L
aL0L
aL0L
aL0L
aL0L
aL0L
aL0L
aL0L
aL0L
aL0L
aL0L
aL0L
aL0L
aL0L
aL0L
aL0L
aL0L
aL0L
aL0L
aL0L
aL0L
aL0L
aL0L
aL0L
aL0L
aL0L
aL0L
aL0L
aL0L
aL0L
aL0L
aL0L
aL0L
aL0L
aL0L
aL0L
aL0L
aL0L
aL0L
aL0L
aL0L
aL0L
aL0L
aL0L
aL0L
aL0L
aL0L
aL0L
aL0L
aL0L
aL0L
aL0L
aL0L
aL0L
aL0L
aL0L
aL0L
aL0L
aL0L
aL0L
aL0L
aL0L
aL0L
aL0L
aL0L
aL0L
aL0L
aL0L
aL0L
aL0L
aL0L
aL0L
aL0L
aL0L
aL0L
aL0L
aL0L
aL0L
aL0L
aL0L
aL0L
aL0L
aL0L
aL0L
aL0L
aL0L
aL0L
aL0L
aL0L
aL0L
aL0L
aL0L
aL0L
aL0L
aL0L
aL0L
atp352
Rp353
ag283
(g284
(lp354
L0L
aL0L
aL0L
aL0L
aL0L
aL0L
aL0L
aL0L
aL0L
aL0L
aL0L
aL0L
aL0L
aL0L
aL0L
aL0L
aL0L
aL0L
aL0L
aL0L
aL0L
aL0L
aL0L
aL0L
aL0L
aL0L
aL0L
aL0L
aL0L
aL0L
aL0L
aL0L
aL0L
aL0L
aL0L
aL0L
aL0L
aL0L
aL0L
aL0L
aL0L
aL0L
aL0L
aL0L
aL0L
aL0L
aL0L
aL0L
aL0L
aL0L
aL0L
aL0L
aL0L
aL0L
aL0L
aL0L
aL0L
aL0L
aL0L
aL0L
aL0L
aL0L
aL0L
aL0L
aL0L
aL0L
aL0L
aL0L
aL0L
aL0L
aL0L
aL0L
aL0L
aL0L
aL0L
aL0L
aL0L
aL0L
aL0L
aL0L
aL0L
aL0L
aL0L
aL0L
aL0L
aL0L
aL0L
aL0L
aL0L
aL0L
aL0L
aL0L
aL0L
aL0L
aL0L
aL0L
aL0L
aL0L
aL0L
aL0L
aL0L
aL0L
aL0L
aL0L
aL0L
aL0L
aL0L
aL0L
aL0L
aL0L
aL0L
aL0L
aL0L
aL0L
aL0L
aL0L
aL0L
aL0L
aL0L
aL0L
aL0L
aL0L
aL0L
aL0L
aL0L
aL0L
aL0L
aL0L
atp355
Rp356
ag283
(g284
(lp357
L0L
aL0L
aL0L
aL0L
aL0L
aL0L
aL0L
aL0L
aL0L
aL0L
aL0L
aL0L
aL0L
aL0L
aL0L
aL0L
aL0L
aL0L
aL0L
aL0L
aL0L
aL0L
aL0L
aL0L
aL0L
aL0L
aL0L
aL0L
aL0L
aL0L
aL0L
aL0L
aL0L
aL0L
aL0L
aL0L
aL0L
aL0L
aL0L
aL0L
aL0L
aL0L
aL0L
aL0L
aL0L
aL0L
aL0L
aL0L
aL0L
aL0L
aL0L
aL0L
aL0L
aL0L
aL0L
aL0L
aL0L
aL0L
aL0L
aL0L
aL0L
aL0L
aL0L
aL0L
aL0L
aL0L
aL0L
aL0L
aL0L
aL0L
aL0L
aL0L
aL0L
aL0L
aL0L
aL0L
aL0L
aL0L
aL0L
aL0L
aL0L
aL0L
aL0L
aL0L
aL0L
aL0L
aL0L
aL0L
aL0L
aL0L
aL0L
aL0L
aL0L
aL0L
aL0L
aL0L
aL0L
aL0L
aL0L
aL0L
aL0L
aL0L
aL0L
aL0L
aL0L
aL0L
aL0L
aL0L
aL0L
aL0L
aL0L
aL0L
aL0L
aL0L
aL0L
aL0L
aL0L
aL0L
aL0L
aL0L
aL0L
aL0L
aL0L
aL0L
aL0L
aL0L
aL0L
aL0L
atp358
Rp359
ag283
(g284
(lp360
L0L
aL0L
aL0L
aL0L
aL0L
aL0L
aL0L
aL0L
aL0L
aL0L
aL0L
aL0L
aL0L
aL0L
aL0L
aL0L
aL0L
aL0L
aL0L
aL0L
aL0L
aL0L
aL0L
aL0L
aL0L
aL0L
aL0L
aL0L
aL0L
aL0L
aL0L
aL0L
aL0L
aL0L
aL0L
aL0L
aL0L
aL0L
aL0L
aL0L
aL0L
aL0L
aL0L
aL0L
aL0L
aL0L
aL0L
aL0L
aL0L
aL0L
aL0L
aL0L
aL0L
aL0L
aL0L
aL0L
aL0L
aL0L
aL0L
aL0L
aL0L
aL0L
aL0L
aL0L
aL0L
aL0L
aL0L
aL0L
aL0L
aL0L
aL0L
aL0L
aL0L
aL0L
aL0L
aL0L
aL0L
aL0L
aL0L
aL0L
aL0L
aL0L
aL0L
aL0L
aL0L
aL0L
aL0L
aL0L
aL0L
aL0L
aL0L
aL0L
aL0L
aL0L
aL0L
aL0L
aL0L
aL0L
aL0L
aL0L
aL0L
aL0L
aL0L
aL0L
aL0L
aL0L
aL0L
aL0L
aL0L
aL0L
aL0L
aL0L
aL0L
aL0L
aL0L
aL0L
aL0L
aL0L
aL0L
aL0L
aL0L
aL0L
aL0L
aL0L
aL0L
aL0L
aL0L
aL0L
atp361
Rp362
ag283
(g284
(lp363
L0L
aL0L
aL0L
aL0L
aL0L
aL0L
aL0L
aL0L
aL0L
aL0L
aL0L
aL0L
aL0L
aL0L
aL0L
aL0L
aL0L
aL0L
aL0L
aL0L
aL0L
aL0L
aL0L
aL0L
aL0L
aL0L
aL0L
aL0L
aL0L
aL0L
aL0L
aL0L
aL0L
aL0L
aL0L
aL0L
aL0L
aL0L
aL0L
aL0L
aL0L
aL0L
aL0L
aL0L
aL0L
aL0L
aL0L
aL0L
aL0L
aL0L
aL0L
aL0L
aL0L
aL0L
aL0L
aL0L
aL0L
aL0L
aL0L
aL0L
aL0L
aL0L
aL0L
aL0L
aL0L
aL0L
aL0L
aL0L
aL0L
aL0L
aL0L
aL0L
aL0L
aL0L
aL0L
aL0L
aL0L
aL0L
aL0L
aL0L
aL0L
aL0L
aL0L
aL0L
aL0L
aL0L
aL0L
aL0L
aL0L
aL0L
aL0L
aL0L
aL0L
aL0L
aL0L
aL0L
aL0L
aL0L
aL0L
aL0L
aL0L
aL0L
aL0L
aL0L
aL0L
aL0L
aL0L
aL0L
aL0L
aL0L
aL0L
aL0L
aL0L
aL0L
aL0L
aL0L
aL0L
aL0L
aL0L
aL0L
aL0L
aL0L
aL0L
aL0L
aL0L
aL0L
aL0L
aL0L
atp364
Rp365
ag283
(g284
(lp366
L0L
aL0L
aL0L
aL0L
aL0L
aL0L
aL0L
aL0L
aL0L
aL0L
aL0L
aL0L
aL0L
aL0L
aL0L
aL0L
aL0L
aL0L
aL0L
aL0L
aL0L
aL0L
aL0L
aL0L
aL0L
aL0L
aL0L
aL0L
aL0L
aL0L
aL0L
aL0L
aL0L
aL0L
aL0L
aL0L
aL0L
aL0L
aL0L
aL0L
aL0L
aL0L
aL0L
aL0L
aL0L
aL0L
aL0L
aL0L
aL0L
aL0L
aL0L
aL0L
aL0L
aL0L
aL0L
aL0L
aL0L
aL0L
aL0L
aL0L
aL0L
aL0L
aL0L
aL0L
aL0L
aL0L
aL0L
aL0L
aL0L
aL0L
aL0L
aL0L
aL0L
aL0L
aL0L
aL0L
aL0L
aL0L
aL0L
aL0L
aL0L
aL0L
aL0L
aL0L
aL0L
aL0L
aL0L
aL0L
aL0L
aL0L
aL0L
aL0L
aL0L
aL0L
aL0L
aL0L
aL0L
aL0L
aL0L
aL0L
aL0L
aL0L
aL0L
aL0L
aL0L
aL0L
aL0L
aL0L
aL0L
aL0L
aL0L
aL0L
aL0L
aL0L
aL0L
aL0L
aL0L
aL0L
aL0L
aL0L
aL0L
aL0L
aL0L
aL0L
aL0L
aL0L
aL0L
aL0L
atp367
Rp368
ag283
(g284
(lp369
L0L
aL0L
aL0L
aL0L
aL0L
aL0L
aL0L
aL0L
aL0L
aL0L
aL0L
aL0L
aL0L
aL0L
aL0L
aL0L
aL0L
aL0L
aL0L
aL0L
aL0L
aL0L
aL0L
aL0L
aL0L
aL0L
aL0L
aL0L
aL0L
aL0L
aL0L
aL0L
aL0L
aL0L
aL0L
aL0L
aL0L
aL0L
aL0L
aL0L
aL0L
aL0L
aL0L
aL0L
aL0L
aL0L
aL0L
aL0L
aL0L
aL0L
aL0L
aL0L
aL0L
aL0L
aL0L
aL0L
aL0L
aL0L
aL0L
aL0L
aL0L
aL0L
aL0L
aL0L
aL0L
aL0L
aL0L
aL0L
aL0L
aL0L
aL0L
aL0L
aL0L
aL0L
aL0L
aL0L
aL0L
aL0L
aL0L
aL0L
aL0L
aL0L
aL0L
aL0L
aL0L
aL0L
aL0L
aL0L
aL0L
aL0L
aL0L
aL0L
aL0L
aL0L
aL0L
aL0L
aL0L
aL0L
aL0L
aL0L
aL0L
aL0L
aL0L
aL0L
aL0L
aL0L
aL0L
aL0L
aL0L
aL0L
aL0L
aL0L
aL0L
aL0L
aL0L
aL0L
aL0L
aL0L
aL0L
aL0L
aL0L
aL0L
aL0L
aL0L
aL0L
aL0L
aL0L
aL0L
atp370
Rp371
ag283
(g284
(lp372
L0L
aL0L
aL0L
aL0L
aL0L
aL0L
aL0L
aL0L
aL0L
aL0L
aL0L
aL0L
aL0L
aL0L
aL0L
aL0L
aL0L
aL0L
aL0L
aL0L
aL0L
aL0L
aL0L
aL0L
aL0L
aL0L
aL0L
aL0L
aL0L
aL0L
aL0L
aL0L
aL0L
aL0L
aL0L
aL0L
aL0L
aL0L
aL0L
aL0L
aL0L
aL0L
aL0L
aL0L
aL0L
aL0L
aL0L
aL0L
aL0L
aL0L
aL0L
aL0L
aL0L
aL0L
aL0L
aL0L
aL0L
aL0L
aL0L
aL0L
aL0L
aL0L
aL0L
aL0L
aL0L
aL0L
aL0L
aL0L
aL0L
aL0L
aL0L
aL0L
aL0L
aL0L
aL0L
aL0L
aL0L
aL0L
aL0L
aL0L
aL0L
aL0L
aL0L
aL0L
aL0L
aL0L
aL0L
aL0L
aL0L
aL0L
aL0L
aL0L
aL0L
aL0L
aL0L
aL0L
aL0L
aL0L
aL0L
aL0L
aL0L
aL0L
aL0L
aL0L
aL0L
aL0L
aL0L
aL0L
aL0L
aL0L
aL0L
aL0L
aL0L
aL0L
aL0L
aL0L
aL0L
aL0L
aL0L
aL0L
aL0L
aL0L
aL0L
aL0L
aL0L
aL0L
aL0L
aL0L
atp373
Rp374
ag283
(g284
(lp375
L0L
aL0L
aL0L
aL0L
aL0L
aL0L
aL0L
aL0L
aL0L
aL0L
aL0L
aL0L
aL0L
aL0L
aL0L
aL0L
aL0L
aL0L
aL0L
aL0L
aL0L
aL0L
aL0L
aL0L
aL0L
aL0L
aL0L
aL0L
aL0L
aL0L
aL0L
aL0L
aL0L
aL0L
aL0L
aL0L
aL0L
aL0L
aL0L
aL0L
aL0L
aL0L
aL0L
aL0L
aL0L
aL0L
aL0L
aL0L
aL0L
aL0L
aL0L
aL0L
aL0L
aL0L
aL0L
aL0L
aL0L
aL0L
aL0L
aL0L
aL0L
aL0L
aL0L
aL0L
aL0L
aL0L
aL0L
aL0L
aL0L
aL0L
aL0L
aL0L
aL0L
aL0L
aL0L
aL0L
aL0L
aL0L
aL0L
aL0L
aL0L
aL0L
aL0L
aL0L
aL0L
aL0L
aL0L
aL0L
aL0L
aL0L
aL0L
aL0L
aL0L
aL0L
aL0L
aL0L
aL0L
aL0L
aL0L
aL0L
aL0L
aL0L
aL0L
aL0L
aL0L
aL0L
aL0L
aL0L
aL0L
aL0L
aL0L
aL0L
aL0L
aL0L
aL0L
aL0L
aL0L
aL0L
aL0L
aL0L
aL0L
aL0L
aL0L
aL0L
aL0L
aL0L
aL0L
aL0L
atp376
Rp377
ag283
(g284
(lp378
L0L
aL0L
aL0L
aL0L
aL0L
aL0L
aL0L
aL0L
aL0L
aL0L
aL0L
aL0L
aL0L
aL0L
aL0L
aL0L
aL0L
aL0L
aL0L
aL0L
aL0L
aL0L
aL0L
aL0L
aL0L
aL0L
aL0L
aL0L
aL0L
aL0L
aL0L
aL0L
aL0L
aL0L
aL0L
aL0L
aL0L
aL0L
aL0L
aL0L
aL0L
aL0L
aL0L
aL0L
aL0L
aL0L
aL0L
aL0L
aL0L
aL0L
aL0L
aL0L
aL0L
aL0L
aL0L
aL0L
aL0L
aL0L
aL0L
aL0L
aL0L
aL0L
aL0L
aL0L
aL0L
aL0L
aL0L
aL0L
aL0L
aL0L
aL0L
aL0L
aL0L
aL0L
aL0L
aL0L
aL0L
aL0L
aL0L
aL0L
aL0L
aL0L
aL0L
aL0L
aL0L
aL0L
aL0L
aL0L
aL0L
aL0L
aL0L
aL0L
aL0L
aL0L
aL0L
aL0L
aL0L
aL0L
aL0L
aL0L
aL0L
aL0L
aL0L
aL0L
aL0L
aL0L
aL0L
aL0L
aL0L
aL0L
aL0L
aL0L
aL0L
aL0L
aL0L
aL0L
aL0L
aL0L
aL0L
aL0L
aL0L
aL0L
aL0L
aL0L
aL0L
aL0L
aL0L
aL0L
atp379
Rp380
ag283
(g284
(lp381
L0L
aL0L
aL0L
aL0L
aL0L
aL0L
aL0L
aL0L
aL0L
aL0L
aL0L
aL0L
aL0L
aL0L
aL0L
aL0L
aL0L
aL0L
aL0L
aL0L
aL0L
aL0L
aL0L
aL0L
aL0L
aL0L
aL0L
aL0L
aL0L
aL0L
aL0L
aL0L
aL0L
aL0L
aL0L
aL0L
aL0L
aL0L
aL0L
aL0L
aL0L
aL0L
aL0L
aL0L
aL0L
aL0L
aL0L
aL0L
aL0L
aL0L
aL0L
aL0L
aL0L
aL0L
aL0L
aL0L
aL0L
aL0L
aL0L
aL0L
aL0L
aL0L
aL0L
aL0L
aL0L
aL0L
aL0L
aL0L
aL0L
aL0L
aL0L
aL0L
aL0L
aL0L
aL0L
aL0L
aL0L
aL0L
aL0L
aL0L
aL0L
aL0L
aL0L
aL0L
aL0L
aL0L
aL0L
aL0L
aL0L
aL0L
aL0L
aL0L
aL0L
aL0L
aL0L
aL0L
aL0L
aL0L
aL0L
aL0L
aL0L
aL0L
aL0L
aL0L
aL0L
aL0L
aL0L
aL0L
aL0L
aL0L
aL0L
aL0L
aL0L
aL0L
aL0L
aL0L
aL0L
aL0L
aL0L
aL0L
aL0L
aL0L
aL0L
aL0L
aL0L
aL0L
aL0L
aL0L
atp382
Rp383
ag283
(g284
(lp384
L0L
aL0L
aL0L
aL0L
aL0L
aL0L
aL0L
aL0L
aL0L
aL0L
aL0L
aL0L
aL0L
aL0L
aL0L
aL0L
aL0L
aL0L
aL0L
aL0L
aL0L
aL0L
aL0L
aL0L
aL0L
aL0L
aL0L
aL0L
aL0L
aL0L
aL0L
aL0L
aL0L
aL0L
aL0L
aL0L
aL0L
aL0L
aL0L
aL0L
aL0L
aL0L
aL0L
aL0L
aL0L
aL0L
aL0L
aL0L
aL0L
aL0L
aL0L
aL0L
aL0L
aL0L
aL0L
aL0L
aL0L
aL0L
aL0L
aL0L
aL0L
aL0L
aL0L
aL0L
aL0L
aL0L
aL0L
aL0L
aL0L
aL0L
aL0L
aL0L
aL0L
aL0L
aL0L
aL0L
aL0L
aL0L
aL0L
aL0L
aL0L
aL0L
aL0L
aL0L
aL0L
aL0L
aL0L
aL0L
aL0L
aL0L
aL0L
aL0L
aL0L
aL0L
aL0L
aL0L
aL0L
aL0L
aL0L
aL0L
aL0L
aL0L
aL0L
aL0L
aL0L
aL0L
aL0L
aL0L
aL0L
aL0L
aL0L
aL0L
aL0L
aL0L
aL0L
aL0L
aL0L
aL0L
aL0L
aL0L
aL0L
aL0L
aL0L
aL0L
aL0L
aL0L
aL0L
aL0L
atp385
Rp386
ag283
(g284
(lp387
L0L
aL0L
aL0L
aL0L
aL0L
aL0L
aL0L
aL0L
aL0L
aL0L
aL0L
aL0L
aL0L
aL0L
aL0L
aL0L
aL0L
aL0L
aL0L
aL0L
aL0L
aL0L
aL0L
aL0L
aL0L
aL0L
aL0L
aL0L
aL0L
aL0L
aL0L
aL0L
aL0L
aL0L
aL0L
aL0L
aL0L
aL0L
aL0L
aL0L
aL0L
aL0L
aL0L
aL0L
aL0L
aL0L
aL0L
aL0L
aL0L
aL0L
aL0L
aL0L
aL0L
aL0L
aL0L
aL0L
aL0L
aL0L
aL0L
aL0L
aL0L
aL0L
aL0L
aL0L
aL0L
aL0L
aL0L
aL0L
aL0L
aL0L
aL0L
aL0L
aL0L
aL0L
aL0L
aL0L
aL0L
aL0L
aL0L
aL0L
aL0L
aL0L
aL0L
aL0L
aL0L
aL0L
aL0L
aL0L
aL0L
aL0L
aL0L
aL0L
aL0L
aL0L
aL0L
aL0L
aL0L
aL0L
aL0L
aL0L
aL0L
aL0L
aL0L
aL0L
aL0L
aL0L
aL0L
aL0L
aL0L
aL0L
aL0L
aL0L
aL0L
aL0L
aL0L
aL0L
aL0L
aL0L
aL0L
aL0L
aL0L
aL0L
aL0L
aL0L
aL0L
aL0L
aL0L
aL0L
atp388
Rp389
ag283
(g284
(lp390
L0L
aL0L
aL0L
aL0L
aL0L
aL0L
aL0L
aL0L
aL0L
aL0L
aL0L
aL0L
aL0L
aL0L
aL0L
aL0L
aL0L
aL0L
aL0L
aL0L
aL0L
aL0L
aL0L
aL0L
aL0L
aL0L
aL0L
aL0L
aL0L
aL0L
aL0L
aL0L
aL0L
aL0L
aL0L
aL0L
aL0L
aL0L
aL0L
aL0L
aL0L
aL0L
aL0L
aL0L
aL0L
aL0L
aL0L
aL0L
aL0L
aL0L
aL0L
aL0L
aL0L
aL0L
aL0L
aL0L
aL0L
aL0L
aL0L
aL0L
aL0L
aL0L
aL0L
aL0L
aL0L
aL0L
aL0L
aL0L
aL0L
aL0L
aL0L
aL0L
aL0L
aL0L
aL0L
aL0L
aL0L
aL0L
aL0L
aL0L
aL0L
aL0L
aL0L
aL0L
aL0L
aL0L
aL0L
aL0L
aL0L
aL0L
aL0L
aL0L
aL0L
aL0L
aL0L
aL0L
aL0L
aL0L
aL0L
aL0L
aL0L
aL0L
aL0L
aL0L
aL0L
aL0L
aL0L
aL0L
aL0L
aL0L
aL0L
aL0L
aL0L
aL0L
aL0L
aL0L
aL0L
aL0L
aL0L
aL0L
aL0L
aL0L
aL0L
aL0L
aL0L
aL0L
aL0L
aL0L
atp391
Rp392
ag283
(g284
(lp393
L0L
aL0L
aL0L
aL0L
aL0L
aL0L
aL0L
aL0L
aL0L
aL0L
aL0L
aL0L
aL0L
aL0L
aL0L
aL0L
aL0L
aL0L
aL0L
aL0L
aL0L
aL0L
aL0L
aL0L
aL0L
aL0L
aL0L
aL0L
aL0L
aL0L
aL0L
aL0L
aL0L
aL0L
aL0L
aL0L
aL0L
aL0L
aL0L
aL0L
aL0L
aL0L
aL0L
aL0L
aL0L
aL0L
aL0L
aL0L
aL0L
aL0L
aL0L
aL0L
aL0L
aL0L
aL0L
aL0L
aL0L
aL0L
aL0L
aL0L
aL0L
aL0L
aL0L
aL0L
aL0L
aL0L
aL0L
aL0L
aL0L
aL0L
aL0L
aL0L
aL0L
aL0L
aL0L
aL0L
aL0L
aL0L
aL0L
aL0L
aL0L
aL0L
aL0L
aL0L
aL0L
aL0L
aL0L
aL0L
aL0L
aL0L
aL0L
aL0L
aL0L
aL0L
aL0L
aL0L
aL0L
aL0L
aL0L
aL0L
aL0L
aL0L
aL0L
aL0L
aL0L
aL0L
aL0L
aL0L
aL0L
aL0L
aL0L
aL0L
aL0L
aL0L
aL0L
aL0L
aL0L
aL0L
aL0L
aL0L
aL0L
aL0L
aL0L
aL0L
aL0L
aL0L
aL0L
aL0L
atp394
Rp395
ag283
(g284
(lp396
L0L
aL0L
aL0L
aL0L
aL0L
aL0L
aL0L
aL0L
aL0L
aL0L
aL0L
aL0L
aL0L
aL0L
aL0L
aL0L
aL0L
aL0L
aL0L
aL0L
aL0L
aL0L
aL0L
aL0L
aL0L
aL0L
aL0L
aL0L
aL0L
aL0L
aL0L
aL0L
aL0L
aL0L
aL0L
aL0L
aL0L
aL0L
aL0L
aL0L
aL0L
aL0L
aL0L
aL0L
aL0L
aL0L
aL0L
aL0L
aL0L
aL0L
aL0L
aL0L
aL0L
aL0L
aL0L
aL0L
aL0L
aL0L
aL0L
aL0L
aL0L
aL0L
aL0L
aL0L
aL0L
aL0L
aL0L
aL0L
aL0L
aL0L
aL0L
aL0L
aL0L
aL0L
aL0L
aL0L
aL0L
aL0L
aL0L
aL0L
aL0L
aL0L
aL0L
aL0L
aL0L
aL0L
aL0L
aL0L
aL0L
aL0L
aL0L
aL0L
aL0L
aL0L
aL0L
aL0L
aL0L
aL0L
aL0L
aL0L
aL0L
aL0L
aL0L
aL0L
aL0L
aL0L
aL0L
aL0L
aL0L
aL0L
aL0L
aL0L
aL0L
aL0L
aL0L
aL0L
aL0L
aL0L
aL0L
aL0L
aL0L
aL0L
aL0L
aL0L
aL0L
aL0L
aL0L
aL0L
atp397
Rp398
ag283
(g284
(lp399
L0L
aL0L
aL0L
aL0L
aL0L
aL0L
aL0L
aL0L
aL0L
aL0L
aL0L
aL0L
aL0L
aL0L
aL0L
aL0L
aL0L
aL0L
aL0L
aL0L
aL0L
aL0L
aL0L
aL0L
aL0L
aL0L
aL0L
aL0L
aL0L
aL0L
aL0L
aL0L
aL0L
aL0L
aL0L
aL0L
aL0L
aL0L
aL0L
aL0L
aL0L
aL0L
aL0L
aL0L
aL0L
aL0L
aL0L
aL0L
aL0L
aL0L
aL0L
aL0L
aL0L
aL0L
aL0L
aL0L
aL0L
aL0L
aL0L
aL0L
aL0L
aL0L
aL0L
aL0L
aL0L
aL0L
aL0L
aL0L
aL0L
aL0L
aL0L
aL0L
aL0L
aL0L
aL0L
aL0L
aL0L
aL0L
aL0L
aL0L
aL0L
aL0L
aL0L
aL0L
aL0L
aL0L
aL0L
aL0L
aL0L
aL0L
aL0L
aL0L
aL0L
aL0L
aL0L
aL0L
aL0L
aL0L
aL0L
aL0L
aL0L
aL0L
aL0L
aL0L
aL0L
aL0L
aL0L
aL0L
aL0L
aL0L
aL0L
aL0L
aL0L
aL0L
aL0L
aL0L
aL0L
aL0L
aL0L
aL0L
aL0L
aL0L
aL0L
aL0L
aL0L
aL0L
aL0L
aL0L
atp400
Rp401
ag283
(g284
(lp402
L0L
aL0L
aL0L
aL0L
aL0L
aL0L
aL0L
aL0L
aL0L
aL0L
aL0L
aL0L
aL0L
aL0L
aL0L
aL0L
aL0L
aL0L
aL0L
aL0L
aL0L
aL0L
aL0L
aL0L
aL0L
aL0L
aL0L
aL0L
aL0L
aL0L
aL0L
aL0L
aL0L
aL0L
aL0L
aL0L
aL0L
aL0L
aL0L
aL0L
aL0L
aL0L
aL0L
aL0L
aL0L
aL0L
aL0L
aL0L
aL0L
aL0L
aL0L
aL0L
aL0L
aL0L
aL0L
aL0L
aL0L
aL0L
aL0L
aL0L
aL0L
aL0L
aL0L
aL0L
aL0L
aL0L
aL0L
aL0L
aL0L
aL0L
aL0L
aL0L
aL0L
aL0L
aL0L
aL0L
aL0L
aL0L
aL0L
aL0L
aL0L
aL0L
aL0L
aL0L
aL0L
aL0L
aL0L
aL0L
aL0L
aL0L
aL0L
aL0L
aL0L
aL0L
aL0L
aL0L
aL0L
aL0L
aL0L
aL0L
aL0L
aL0L
aL0L
aL0L
aL0L
aL0L
aL0L
aL0L
aL0L
aL0L
aL0L
aL0L
aL0L
aL0L
aL0L
aL0L
aL0L
aL0L
aL0L
aL0L
aL0L
aL0L
aL0L
aL0L
aL0L
aL0L
aL0L
aL0L
atp403
Rp404
ag283
(g284
(lp405
L0L
aL0L
aL0L
aL0L
aL0L
aL0L
aL0L
aL0L
aL0L
aL0L
aL0L
aL0L
aL0L
aL0L
aL0L
aL0L
aL0L
aL0L
aL0L
aL0L
aL0L
aL0L
aL0L
aL0L
aL0L
aL0L
aL0L
aL0L
aL0L
aL0L
aL0L
aL0L
aL0L
aL0L
aL0L
aL0L
aL0L
aL0L
aL0L
aL0L
aL0L
aL0L
aL0L
aL0L
aL0L
aL0L
aL0L
aL0L
aL0L
aL0L
aL0L
aL0L
aL0L
aL0L
aL0L
aL0L
aL0L
aL0L
aL0L
aL0L
aL0L
aL0L
aL0L
aL0L
aL0L
aL0L
aL0L
aL0L
aL0L
aL0L
aL0L
aL0L
aL0L
aL0L
aL0L
aL0L
aL0L
aL0L
aL0L
aL0L
aL0L
aL0L
aL0L
aL0L
aL0L
aL0L
aL0L
aL0L
aL0L
aL0L
aL0L
aL0L
aL0L
aL0L
aL0L
aL0L
aL0L
aL0L
aL0L
aL0L
aL0L
aL0L
aL0L
aL0L
aL0L
aL0L
aL0L
aL0L
aL0L
aL0L
aL0L
aL0L
aL0L
aL0L
aL0L
aL0L
aL0L
aL0L
aL0L
aL0L
aL0L
aL0L
aL0L
aL0L
aL0L
aL0L
aL0L
aL0L
atp406
Rp407
ag283
(g284
(lp408
L0L
aL0L
aL0L
aL0L
aL0L
aL0L
aL0L
aL0L
aL0L
aL0L
aL0L
aL0L
aL0L
aL0L
aL0L
aL0L
aL0L
aL0L
aL0L
aL0L
aL0L
aL0L
aL0L
aL0L
aL0L
aL0L
aL0L
aL0L
aL0L
aL0L
aL0L
aL0L
aL0L
aL0L
aL0L
aL0L
aL0L
aL0L
aL0L
aL0L
aL0L
aL0L
aL0L
aL0L
aL0L
aL0L
aL0L
aL0L
aL0L
aL0L
aL0L
aL0L
aL0L
aL0L
aL0L
aL0L
aL0L
aL0L
aL0L
aL0L
aL0L
aL0L
aL0L
aL0L
aL0L
aL0L
aL0L
aL0L
aL0L
aL0L
aL0L
aL0L
aL0L
aL0L
aL0L
aL0L
aL0L
aL0L
aL0L
aL0L
aL0L
aL0L
aL0L
aL0L
aL0L
aL0L
aL0L
aL0L
aL0L
aL0L
aL0L
aL0L
aL0L
aL0L
aL0L
aL0L
aL0L
aL0L
aL0L
aL0L
aL0L
aL0L
aL0L
aL0L
aL0L
aL0L
aL0L
aL0L
aL0L
aL0L
aL0L
aL0L
aL0L
aL0L
aL0L
aL0L
aL0L
aL0L
aL0L
aL0L
aL0L
aL0L
aL0L
aL0L
aL0L
aL0L
aL0L
aL0L
atp409
Rp410
ag283
(g284
(lp411
L0L
aL0L
aL0L
aL0L
aL0L
aL0L
aL0L
aL0L
aL0L
aL0L
aL0L
aL0L
aL0L
aL0L
aL0L
aL0L
aL0L
aL0L
aL0L
aL0L
aL0L
aL0L
aL0L
aL0L
aL0L
aL0L
aL0L
aL0L
aL0L
aL0L
aL0L
aL0L
aL0L
aL0L
aL0L
aL0L
aL0L
aL0L
aL0L
aL0L
aL0L
aL0L
aL0L
aL0L
aL0L
aL0L
aL0L
aL0L
aL0L
aL0L
aL0L
aL0L
aL0L
aL0L
aL0L
aL0L
aL0L
aL0L
aL0L
aL0L
aL0L
aL0L
aL0L
aL0L
aL0L
aL0L
aL0L
aL0L
aL0L
aL0L
aL0L
aL0L
aL0L
aL0L
aL0L
aL0L
aL0L
aL0L
aL0L
aL0L
aL0L
aL0L
aL0L
aL0L
aL0L
aL0L
aL0L
aL0L
aL0L
aL0L
aL0L
aL0L
aL0L
aL0L
aL0L
aL0L
aL0L
aL0L
aL0L
aL0L
aL0L
aL0L
aL0L
aL0L
aL0L
aL0L
aL0L
aL0L
aL0L
aL0L
aL0L
aL0L
aL0L
aL0L
aL0L
aL0L
aL0L
aL0L
aL0L
aL0L
aL0L
aL0L
aL0L
aL0L
aL0L
aL0L
aL0L
aL0L
atp412
Rp413
ag283
(g284
(lp414
L0L
aL0L
aL0L
aL0L
aL0L
aL0L
aL0L
aL0L
aL0L
aL0L
aL0L
aL0L
aL0L
aL0L
aL0L
aL0L
aL0L
aL0L
aL0L
aL0L
aL0L
aL0L
aL0L
aL0L
aL0L
aL0L
aL0L
aL0L
aL0L
aL0L
aL0L
aL0L
aL0L
aL0L
aL0L
aL0L
aL0L
aL0L
aL0L
aL0L
aL0L
aL0L
aL0L
aL0L
aL0L
aL0L
aL0L
aL0L
aL0L
aL0L
aL0L
aL0L
aL0L
aL0L
aL0L
aL0L
aL0L
aL0L
aL0L
aL0L
aL0L
aL0L
aL0L
aL0L
aL0L
aL0L
aL0L
aL0L
aL0L
aL0L
aL0L
aL0L
aL0L
aL0L
aL0L
aL0L
aL0L
aL0L
aL0L
aL0L
aL0L
aL0L
aL0L
aL0L
aL0L
aL0L
aL0L
aL0L
aL0L
aL0L
aL0L
aL0L
aL0L
aL0L
aL0L
aL0L
aL0L
aL0L
aL0L
aL0L
aL0L
aL0L
aL0L
aL0L
aL0L
aL0L
aL0L
aL0L
aL0L
aL0L
aL0L
aL0L
aL0L
aL0L
aL0L
aL0L
aL0L
aL0L
aL0L
aL0L
aL0L
aL0L
aL0L
aL0L
aL0L
aL0L
aL0L
aL0L
atp415
Rp416
ag283
(g284
(lp417
L0L
aL0L
aL0L
aL0L
aL0L
aL0L
aL0L
aL0L
aL0L
aL0L
aL0L
aL0L
aL0L
aL0L
aL0L
aL0L
aL0L
aL0L
aL0L
aL0L
aL0L
aL0L
aL0L
aL0L
aL0L
aL0L
aL0L
aL0L
aL0L
aL0L
aL0L
aL0L
aL0L
aL0L
aL0L
aL0L
aL0L
aL0L
aL0L
aL0L
aL0L
aL0L
aL0L
aL0L
aL0L
aL0L
aL0L
aL0L
aL0L
aL0L
aL0L
aL0L
aL0L
aL0L
aL0L
aL0L
aL0L
aL0L
aL0L
aL0L
aL0L
aL0L
aL0L
aL0L
aL0L
aL0L
aL0L
aL0L
aL0L
aL0L
aL0L
aL0L
aL0L
aL0L
aL0L
aL0L
aL0L
aL0L
aL0L
aL0L
aL0L
aL0L
aL0L
aL0L
aL0L
aL0L
aL0L
aL0L
aL0L
aL0L
aL0L
aL0L
aL0L
aL0L
aL0L
aL0L
aL0L
aL0L
aL0L
aL0L
aL0L
aL0L
aL0L
aL0L
aL0L
aL0L
aL0L
aL0L
aL0L
aL0L
aL0L
aL0L
aL0L
aL0L
aL0L
aL0L
aL0L
aL0L
aL0L
aL0L
aL0L
aL0L
aL0L
aL0L
aL0L
aL0L
aL0L
aL0L
atp418
Rp419
ag283
(g284
(lp420
L0L
aL0L
aL0L
aL0L
aL0L
aL0L
aL0L
aL0L
aL0L
aL0L
aL0L
aL0L
aL0L
aL0L
aL0L
aL0L
aL0L
aL0L
aL0L
aL0L
aL0L
aL0L
aL0L
aL0L
aL0L
aL0L
aL0L
aL0L
aL0L
aL0L
aL0L
aL0L
aL0L
aL0L
aL0L
aL0L
aL0L
aL0L
aL0L
aL0L
aL0L
aL0L
aL0L
aL0L
aL0L
aL0L
aL0L
aL0L
aL0L
aL0L
aL0L
aL0L
aL0L
aL0L
aL0L
aL0L
aL0L
aL0L
aL0L
aL0L
aL0L
aL0L
aL0L
aL0L
aL0L
aL0L
aL0L
aL0L
aL0L
aL0L
aL0L
aL0L
aL0L
aL0L
aL0L
aL0L
aL0L
aL0L
aL0L
aL0L
aL0L
aL0L
aL0L
aL0L
aL0L
aL0L
aL0L
aL0L
aL0L
aL0L
aL0L
aL0L
aL0L
aL0L
aL0L
aL0L
aL0L
aL0L
aL0L
aL0L
aL0L
aL0L
aL0L
aL0L
aL0L
aL0L
aL0L
aL0L
aL0L
aL0L
aL0L
aL0L
aL0L
aL0L
aL0L
aL0L
aL0L
aL0L
aL0L
aL0L
aL0L
aL0L
aL0L
aL0L
aL0L
aL0L
aL0L
aL0L
atp421
Rp422
ag283
(g284
(lp423
L0L
aL0L
aL0L
aL0L
aL0L
aL0L
aL0L
aL0L
aL0L
aL0L
aL0L
aL0L
aL0L
aL0L
aL0L
aL0L
aL0L
aL0L
aL0L
aL0L
aL0L
aL0L
aL0L
aL0L
aL0L
aL0L
aL0L
aL0L
aL0L
aL0L
aL0L
aL0L
aL0L
aL0L
aL0L
aL0L
aL0L
aL0L
aL0L
aL0L
aL0L
aL0L
aL0L
aL0L
aL0L
aL0L
aL0L
aL0L
aL0L
aL0L
aL0L
aL0L
aL0L
aL0L
aL0L
aL0L
aL0L
aL0L
aL0L
aL0L
aL0L
aL0L
aL0L
aL0L
aL0L
aL0L
aL0L
aL0L
aL0L
aL0L
aL0L
aL0L
aL0L
aL0L
aL0L
aL0L
aL0L
aL0L
aL0L
aL0L
aL0L
aL0L
aL0L
aL0L
aL0L
aL0L
aL0L
aL0L
aL0L
aL0L
aL0L
aL0L
aL0L
aL0L
aL0L
aL0L
aL0L
aL0L
aL0L
aL0L
aL0L
aL0L
aL0L
aL0L
aL0L
aL0L
aL0L
aL0L
aL0L
aL0L
aL0L
aL0L
aL0L
aL0L
aL0L
aL0L
aL0L
aL0L
aL0L
aL0L
aL0L
aL0L
aL0L
aL0L
aL0L
aL0L
aL0L
aL0L
atp424
Rp425
ag283
(g284
(lp426
L0L
aL0L
aL0L
aL0L
aL0L
aL0L
aL0L
aL0L
aL0L
aL0L
aL0L
aL0L
aL0L
aL0L
aL0L
aL0L
aL0L
aL0L
aL0L
aL0L
aL0L
aL0L
aL0L
aL0L
aL0L
aL0L
aL0L
aL0L
aL0L
aL0L
aL0L
aL0L
aL0L
aL0L
aL0L
aL0L
aL0L
aL0L
aL0L
aL0L
aL0L
aL0L
aL0L
aL0L
aL0L
aL0L
aL0L
aL0L
aL0L
aL0L
aL0L
aL0L
aL0L
aL0L
aL0L
aL0L
aL0L
aL0L
aL0L
aL0L
aL0L
aL0L
aL0L
aL0L
aL0L
aL0L
aL0L
aL0L
aL0L
aL0L
aL0L
aL0L
aL0L
aL0L
aL0L
aL0L
aL0L
aL0L
aL0L
aL0L
aL0L
aL0L
aL0L
aL0L
aL0L
aL0L
aL0L
aL0L
aL0L
aL0L
aL0L
aL0L
aL0L
aL0L
aL0L
aL0L
aL0L
aL0L
aL0L
aL0L
aL0L
aL0L
aL0L
aL0L
aL0L
aL0L
aL0L
aL0L
aL0L
aL0L
aL0L
aL0L
aL0L
aL0L
aL0L
aL0L
aL0L
aL0L
aL0L
aL0L
aL0L
aL0L
aL0L
aL0L
aL0L
aL0L
aL0L
aL0L
atp427
Rp428
ag283
(g284
(lp429
L0L
aL0L
aL0L
aL0L
aL0L
aL0L
aL0L
aL0L
aL0L
aL0L
aL0L
aL0L
aL0L
aL0L
aL0L
aL0L
aL0L
aL0L
aL0L
aL0L
aL0L
aL0L
aL0L
aL0L
aL0L
aL0L
aL0L
aL0L
aL0L
aL0L
aL0L
aL0L
aL0L
aL0L
aL0L
aL0L
aL0L
aL0L
aL0L
aL0L
aL0L
aL0L
aL0L
aL0L
aL0L
aL0L
aL0L
aL0L
aL0L
aL0L
aL0L
aL0L
aL0L
aL0L
aL0L
aL0L
aL0L
aL0L
aL0L
aL0L
aL0L
aL0L
aL0L
aL0L
aL0L
aL0L
aL0L
aL0L
aL0L
aL0L
aL0L
aL0L
aL0L
aL0L
aL0L
aL0L
aL0L
aL0L
aL0L
aL0L
aL0L
aL0L
aL0L
aL0L
aL0L
aL0L
aL0L
aL0L
aL0L
aL0L
aL0L
aL0L
aL0L
aL0L
aL0L
aL0L
aL0L
aL0L
aL0L
aL0L
aL0L
aL0L
aL0L
aL0L
aL0L
aL0L
aL0L
aL0L
aL0L
aL0L
aL0L
aL0L
aL0L
aL0L
aL0L
aL0L
aL0L
aL0L
aL0L
aL0L
aL0L
aL0L
aL0L
aL0L
aL0L
aL0L
aL0L
aL0L
atp430
Rp431
ag283
(g284
(lp432
L0L
aL0L
aL0L
aL0L
aL0L
aL0L
aL0L
aL0L
aL0L
aL0L
aL0L
aL0L
aL0L
aL0L
aL0L
aL0L
aL0L
aL0L
aL0L
aL0L
aL0L
aL0L
aL0L
aL0L
aL0L
aL0L
aL0L
aL0L
aL0L
aL0L
aL0L
aL0L
aL0L
aL0L
aL0L
aL0L
aL0L
aL0L
aL0L
aL0L
aL0L
aL0L
aL0L
aL0L
aL0L
aL0L
aL0L
aL0L
aL0L
aL0L
aL0L
aL0L
aL0L
aL0L
aL0L
aL0L
aL0L
aL0L
aL0L
aL0L
aL0L
aL0L
aL0L
aL0L
aL0L
aL0L
aL0L
aL0L
aL0L
aL0L
aL0L
aL0L
aL0L
aL0L
aL0L
aL0L
aL0L
aL0L
aL0L
aL0L
aL0L
aL0L
aL0L
aL0L
aL0L
aL0L
aL0L
aL0L
aL0L
aL0L
aL0L
aL0L
aL0L
aL0L
aL0L
aL0L
aL0L
aL0L
aL0L
aL0L
aL0L
aL0L
aL0L
aL0L
aL0L
aL0L
aL0L
aL0L
aL0L
aL0L
aL0L
aL0L
aL0L
aL0L
aL0L
aL0L
aL0L
aL0L
aL0L
aL0L
aL0L
aL0L
aL0L
aL0L
aL0L
aL0L
aL0L
aL0L
atp433
Rp434
ag283
(g284
(lp435
L0L
aL0L
aL0L
aL0L
aL0L
aL0L
aL0L
aL0L
aL0L
aL0L
aL0L
aL0L
aL0L
aL0L
aL0L
aL0L
aL0L
aL0L
aL0L
aL0L
aL0L
aL0L
aL0L
aL0L
aL0L
aL0L
aL0L
aL0L
aL0L
aL0L
aL0L
aL0L
aL0L
aL0L
aL0L
aL0L
aL0L
aL0L
aL0L
aL0L
aL0L
aL0L
aL0L
aL0L
aL0L
aL0L
aL0L
aL0L
aL0L
aL0L
aL0L
aL0L
aL0L
aL0L
aL0L
aL0L
aL0L
aL0L
aL0L
aL0L
aL0L
aL0L
aL0L
aL0L
aL0L
aL0L
aL0L
aL0L
aL0L
aL0L
aL0L
aL0L
aL0L
aL0L
aL0L
aL0L
aL0L
aL0L
aL0L
aL0L
aL0L
aL0L
aL0L
aL0L
aL0L
aL0L
aL0L
aL0L
aL0L
aL0L
aL0L
aL0L
aL0L
aL0L
aL0L
aL0L
aL0L
aL0L
aL0L
aL0L
aL0L
aL0L
aL0L
aL0L
aL0L
aL0L
aL0L
aL0L
aL0L
aL0L
aL0L
aL0L
aL0L
aL0L
aL0L
aL0L
aL0L
aL0L
aL0L
aL0L
aL0L
aL0L
aL0L
aL0L
aL0L
aL0L
aL0L
aL0L
atp436
Rp437
ag283
(g284
(lp438
L0L
aL0L
aL0L
aL0L
aL0L
aL0L
aL0L
aL0L
aL0L
aL0L
aL0L
aL0L
aL0L
aL0L
aL0L
aL0L
aL0L
aL0L
aL0L
aL0L
aL0L
aL0L
aL0L
aL0L
aL0L
aL0L
aL0L
aL0L
aL0L
aL0L
aL0L
aL0L
aL0L
aL0L
aL0L
aL0L
aL0L
aL0L
aL0L
aL0L
aL0L
aL0L
aL0L
aL0L
aL0L
aL0L
aL0L
aL0L
aL0L
aL0L
aL0L
aL0L
aL0L
aL0L
aL0L
aL0L
aL0L
aL0L
aL0L
aL0L
aL0L
aL0L
aL0L
aL0L
aL0L
aL0L
aL0L
aL0L
aL0L
aL0L
aL0L
aL0L
aL0L
aL0L
aL0L
aL0L
aL0L
aL0L
aL0L
aL0L
aL0L
aL0L
aL0L
aL0L
aL0L
aL0L
aL0L
aL0L
aL0L
aL0L
aL0L
aL0L
aL0L
aL0L
aL0L
aL0L
aL0L
aL0L
aL0L
aL0L
aL0L
aL0L
aL0L
aL0L
aL0L
aL0L
aL0L
aL0L
aL0L
aL0L
aL0L
aL0L
aL0L
aL0L
aL0L
aL0L
aL0L
aL0L
aL0L
aL0L
aL0L
aL0L
aL0L
aL0L
aL0L
aL0L
aL0L
aL0L
atp439
Rp440
ag283
(g284
(lp441
L0L
aL0L
aL0L
aL0L
aL0L
aL0L
aL0L
aL0L
aL0L
aL0L
aL0L
aL0L
aL0L
aL0L
aL0L
aL0L
aL0L
aL0L
aL0L
aL0L
aL0L
aL0L
aL0L
aL0L
aL0L
aL0L
aL0L
aL0L
aL0L
aL0L
aL0L
aL0L
aL0L
aL0L
aL0L
aL0L
aL0L
aL0L
aL0L
aL0L
aL0L
aL0L
aL0L
aL0L
aL0L
aL0L
aL0L
aL0L
aL0L
aL0L
aL0L
aL0L
aL0L
aL0L
aL0L
aL0L
aL0L
aL0L
aL0L
aL0L
aL0L
aL0L
aL0L
aL0L
aL0L
aL0L
aL0L
aL0L
aL0L
aL0L
aL0L
aL0L
aL0L
aL0L
aL0L
aL0L
aL0L
aL0L
aL0L
aL0L
aL0L
aL0L
aL0L
aL0L
aL0L
aL0L
aL0L
aL0L
aL0L
aL0L
aL0L
aL0L
aL0L
aL0L
aL0L
aL0L
aL0L
aL0L
aL0L
aL0L
aL0L
aL0L
aL0L
aL0L
aL0L
aL0L
aL0L
aL0L
aL0L
aL0L
aL0L
aL0L
aL0L
aL0L
aL0L
aL0L
aL0L
aL0L
aL0L
aL0L
aL0L
aL0L
aL0L
aL0L
aL0L
aL0L
aL0L
aL0L
atp442
Rp443
ag283
(g284
(lp444
L0L
aL0L
aL0L
aL0L
aL0L
aL0L
aL0L
aL0L
aL0L
aL0L
aL0L
aL0L
aL0L
aL0L
aL0L
aL0L
aL0L
aL0L
aL0L
aL0L
aL0L
aL0L
aL0L
aL0L
aL0L
aL0L
aL0L
aL0L
aL0L
aL0L
aL0L
aL0L
aL0L
aL0L
aL0L
aL0L
aL0L
aL0L
aL0L
aL0L
aL0L
aL0L
aL0L
aL0L
aL0L
aL0L
aL0L
aL0L
aL0L
aL0L
aL0L
aL0L
aL0L
aL0L
aL0L
aL0L
aL0L
aL0L
aL0L
aL0L
aL0L
aL0L
aL0L
aL0L
aL0L
aL0L
aL0L
aL0L
aL0L
aL0L
aL0L
aL0L
aL0L
aL0L
aL0L
aL0L
aL0L
aL0L
aL0L
aL0L
aL0L
aL0L
aL0L
aL0L
aL0L
aL0L
aL0L
aL0L
aL0L
aL0L
aL0L
aL0L
aL0L
aL0L
aL0L
aL0L
aL0L
aL0L
aL0L
aL0L
aL0L
aL0L
aL0L
aL0L
aL0L
aL0L
aL0L
aL0L
aL0L
aL0L
aL0L
aL0L
aL0L
aL0L
aL0L
aL0L
aL0L
aL0L
aL0L
aL0L
aL0L
aL0L
aL0L
aL0L
aL0L
aL0L
aL0L
aL0L
atp445
Rp446
ag283
(g284
(lp447
L0L
aL0L
aL0L
aL0L
aL0L
aL0L
aL0L
aL0L
aL0L
aL0L
aL0L
aL0L
aL0L
aL0L
aL0L
aL0L
aL0L
aL0L
aL0L
aL0L
aL0L
aL0L
aL0L
aL0L
aL0L
aL0L
aL0L
aL0L
aL0L
aL0L
aL0L
aL0L
aL0L
aL0L
aL0L
aL0L
aL0L
aL0L
aL0L
aL0L
aL0L
aL0L
aL0L
aL0L
aL0L
aL0L
aL0L
aL0L
aL0L
aL0L
aL0L
aL0L
aL0L
aL0L
aL0L
aL0L
aL0L
aL0L
aL0L
aL0L
aL0L
aL0L
aL0L
aL0L
aL0L
aL0L
aL0L
aL0L
aL0L
aL0L
aL0L
aL0L
aL0L
aL0L
aL0L
aL0L
aL0L
aL0L
aL0L
aL0L
aL0L
aL0L
aL0L
aL0L
aL0L
aL0L
aL0L
aL0L
aL0L
aL0L
aL0L
aL0L
aL0L
aL0L
aL0L
aL0L
aL0L
aL0L
aL0L
aL0L
aL0L
aL0L
aL0L
aL0L
aL0L
aL0L
aL0L
aL0L
aL0L
aL0L
aL0L
aL0L
aL0L
aL0L
aL0L
aL0L
aL0L
aL0L
aL0L
aL0L
aL0L
aL0L
aL0L
aL0L
aL0L
aL0L
aL0L
aL0L
atp448
Rp449
ag283
(g284
(lp450
L0L
aL0L
aL0L
aL0L
aL0L
aL0L
aL0L
aL0L
aL0L
aL0L
aL0L
aL0L
aL0L
aL0L
aL0L
aL0L
aL0L
aL0L
aL0L
aL0L
aL0L
aL0L
aL0L
aL0L
aL0L
aL0L
aL0L
aL0L
aL0L
aL0L
aL0L
aL0L
aL0L
aL0L
aL0L
aL0L
aL0L
aL0L
aL0L
aL0L
aL0L
aL0L
aL0L
aL0L
aL0L
aL0L
aL0L
aL0L
aL0L
aL0L
aL0L
aL0L
aL0L
aL0L
aL0L
aL0L
aL0L
aL0L
aL0L
aL0L
aL0L
aL0L
aL0L
aL0L
aL0L
aL0L
aL0L
aL0L
aL0L
aL0L
aL0L
aL0L
aL0L
aL0L
aL0L
aL0L
aL0L
aL0L
aL0L
aL0L
aL0L
aL0L
aL0L
aL0L
aL0L
aL0L
aL0L
aL0L
aL0L
aL0L
aL0L
aL0L
aL0L
aL0L
aL0L
aL0L
aL0L
aL0L
aL0L
aL0L
aL0L
aL0L
aL0L
aL0L
aL0L
aL0L
aL0L
aL0L
aL0L
aL0L
aL0L
aL0L
aL0L
aL0L
aL0L
aL0L
aL0L
aL0L
aL0L
aL0L
aL0L
aL0L
aL0L
aL0L
aL0L
aL0L
aL0L
aL0L
atp451
Rp452
ag283
(g284
(lp453
L0L
aL0L
aL0L
aL0L
aL0L
aL0L
aL0L
aL0L
aL0L
aL0L
aL0L
aL0L
aL0L
aL0L
aL0L
aL0L
aL0L
aL0L
aL0L
aL0L
aL0L
aL0L
aL0L
aL0L
aL0L
aL0L
aL0L
aL0L
aL0L
aL0L
aL0L
aL0L
aL0L
aL0L
aL0L
aL0L
aL0L
aL0L
aL0L
aL0L
aL0L
aL0L
aL0L
aL0L
aL0L
aL0L
aL0L
aL0L
aL0L
aL0L
aL0L
aL0L
aL0L
aL0L
aL0L
aL0L
aL0L
aL0L
aL0L
aL0L
aL0L
aL0L
aL0L
aL0L
aL0L
aL0L
aL0L
aL0L
aL0L
aL0L
aL0L
aL0L
aL0L
aL0L
aL0L
aL0L
aL0L
aL0L
aL0L
aL0L
aL0L
aL0L
aL0L
aL0L
aL0L
aL0L
aL0L
aL0L
aL0L
aL0L
aL0L
aL0L
aL0L
aL0L
aL0L
aL0L
aL0L
aL0L
aL0L
aL0L
aL0L
aL0L
aL0L
aL0L
aL0L
aL0L
aL0L
aL0L
aL0L
aL0L
aL0L
aL0L
aL0L
aL0L
aL0L
aL0L
aL0L
aL0L
aL0L
aL0L
aL0L
aL0L
aL0L
aL0L
aL0L
aL0L
aL0L
aL0L
atp454
Rp455
ag283
(g284
(lp456
L0L
aL0L
aL0L
aL0L
aL0L
aL0L
aL0L
aL0L
aL0L
aL0L
aL0L
aL0L
aL0L
aL0L
aL0L
aL0L
aL0L
aL0L
aL0L
aL0L
aL0L
aL0L
aL0L
aL0L
aL0L
aL0L
aL0L
aL0L
aL0L
aL0L
aL0L
aL0L
aL0L
aL0L
aL0L
aL0L
aL0L
aL0L
aL0L
aL0L
aL0L
aL0L
aL0L
aL0L
aL0L
aL0L
aL0L
aL0L
aL0L
aL0L
aL0L
aL0L
aL0L
aL0L
aL0L
aL0L
aL0L
aL0L
aL0L
aL0L
aL0L
aL0L
aL0L
aL0L
aL0L
aL0L
aL0L
aL0L
aL0L
aL0L
aL0L
aL0L
aL0L
aL0L
aL0L
aL0L
aL0L
aL0L
aL0L
aL0L
aL0L
aL0L
aL0L
aL0L
aL0L
aL0L
aL0L
aL0L
aL0L
aL0L
aL0L
aL0L
aL0L
aL0L
aL0L
aL0L
aL0L
aL0L
aL0L
aL0L
aL0L
aL0L
aL0L
aL0L
aL0L
aL0L
aL0L
aL0L
aL0L
aL0L
aL0L
aL0L
aL0L
aL0L
aL0L
aL0L
aL0L
aL0L
aL0L
aL0L
aL0L
aL0L
aL0L
aL0L
aL0L
aL0L
aL0L
aL0L
atp457
Rp458
ag283
(g284
(lp459
L0L
aL0L
aL0L
aL0L
aL0L
aL0L
aL0L
aL0L
aL0L
aL0L
aL0L
aL0L
aL0L
aL0L
aL0L
aL0L
aL0L
aL0L
aL0L
aL0L
aL0L
aL0L
aL0L
aL0L
aL0L
aL0L
aL0L
aL0L
aL0L
aL0L
aL0L
aL0L
aL0L
aL0L
aL0L
aL0L
aL0L
aL0L
aL0L
aL0L
aL0L
aL0L
aL0L
aL0L
aL0L
aL0L
aL0L
aL0L
aL0L
aL0L
aL0L
aL0L
aL0L
aL0L
aL0L
aL0L
aL0L
aL0L
aL0L
aL0L
aL0L
aL0L
aL0L
aL0L
aL0L
aL0L
aL0L
aL0L
aL0L
aL0L
aL0L
aL0L
aL0L
aL0L
aL0L
aL0L
aL0L
aL0L
aL0L
aL0L
aL0L
aL0L
aL0L
aL0L
aL0L
aL0L
aL0L
aL0L
aL0L
aL0L
aL0L
aL0L
aL0L
aL0L
aL0L
aL0L
aL0L
aL0L
aL0L
aL0L
aL0L
aL0L
aL0L
aL0L
aL0L
aL0L
aL0L
aL0L
aL0L
aL0L
aL0L
aL0L
aL0L
aL0L
aL0L
aL0L
aL0L
aL0L
aL0L
aL0L
aL0L
aL0L
aL0L
aL0L
aL0L
aL0L
aL0L
aL0L
atp460
Rp461
ag283
(g284
(lp462
L0L
aL0L
aL0L
aL0L
aL0L
aL0L
aL0L
aL0L
aL0L
aL0L
aL0L
aL0L
aL0L
aL0L
aL0L
aL0L
aL0L
aL0L
aL0L
aL0L
aL0L
aL0L
aL0L
aL0L
aL0L
aL0L
aL0L
aL0L
aL0L
aL0L
aL0L
aL0L
aL0L
aL0L
aL0L
aL0L
aL0L
aL0L
aL0L
aL0L
aL0L
aL0L
aL0L
aL0L
aL0L
aL0L
aL0L
aL0L
aL0L
aL0L
aL0L
aL0L
aL0L
aL0L
aL0L
aL0L
aL0L
aL0L
aL0L
aL0L
aL0L
aL0L
aL0L
aL0L
aL0L
aL0L
aL0L
aL0L
aL0L
aL0L
aL0L
aL0L
aL0L
aL0L
aL0L
aL0L
aL0L
aL0L
aL0L
aL0L
aL0L
aL0L
aL0L
aL0L
aL0L
aL0L
aL0L
aL0L
aL0L
aL0L
aL0L
aL0L
aL0L
aL0L
aL0L
aL0L
aL0L
aL0L
aL0L
aL0L
aL0L
aL0L
aL0L
aL0L
aL0L
aL0L
aL0L
aL0L
aL0L
aL0L
aL0L
aL0L
aL0L
aL0L
aL0L
aL0L
aL0L
aL0L
aL0L
aL0L
aL0L
aL0L
aL0L
aL0L
aL0L
aL0L
aL0L
aL0L
atp463
Rp464
ag283
(g284
(lp465
L0L
aL0L
aL0L
aL0L
aL0L
aL0L
aL0L
aL0L
aL0L
aL0L
aL0L
aL0L
aL0L
aL0L
aL0L
aL0L
aL0L
aL0L
aL0L
aL0L
aL0L
aL0L
aL0L
aL0L
aL0L
aL0L
aL0L
aL0L
aL0L
aL0L
aL0L
aL0L
aL0L
aL0L
aL0L
aL0L
aL0L
aL0L
aL0L
aL0L
aL0L
aL0L
aL0L
aL0L
aL0L
aL0L
aL0L
aL0L
aL0L
aL0L
aL0L
aL0L
aL0L
aL0L
aL0L
aL0L
aL0L
aL0L
aL0L
aL0L
aL0L
aL0L
aL0L
aL0L
aL0L
aL0L
aL0L
aL0L
aL0L
aL0L
aL0L
aL0L
aL0L
aL0L
aL0L
aL0L
aL0L
aL0L
aL0L
aL0L
aL0L
aL0L
aL0L
aL0L
aL0L
aL0L
aL0L
aL0L
aL0L
aL0L
aL0L
aL0L
aL0L
aL0L
aL0L
aL0L
aL0L
aL0L
aL0L
aL0L
aL0L
aL0L
aL0L
aL0L
aL0L
aL0L
aL0L
aL0L
aL0L
aL0L
aL0L
aL0L
aL0L
aL0L
aL0L
aL0L
aL0L
aL0L
aL0L
aL0L
aL0L
aL0L
aL0L
aL0L
aL0L
aL0L
aL0L
aL0L
atp466
Rp467
ag283
(g284
(lp468
L0L
aL0L
aL0L
aL0L
aL0L
aL0L
aL0L
aL0L
aL0L
aL0L
aL0L
aL0L
aL0L
aL0L
aL0L
aL0L
aL0L
aL0L
aL0L
aL0L
aL0L
aL0L
aL0L
aL0L
aL0L
aL0L
aL0L
aL0L
aL0L
aL0L
aL0L
aL0L
aL0L
aL0L
aL0L
aL0L
aL0L
aL0L
aL0L
aL0L
aL0L
aL0L
aL0L
aL0L
aL0L
aL0L
aL0L
aL0L
aL0L
aL0L
aL0L
aL0L
aL0L
aL0L
aL0L
aL0L
aL0L
aL0L
aL0L
aL0L
aL0L
aL0L
aL0L
aL0L
aL0L
aL0L
aL0L
aL0L
aL0L
aL0L
aL0L
aL0L
aL0L
aL0L
aL0L
aL0L
aL0L
aL0L
aL0L
aL0L
aL0L
aL0L
aL0L
aL0L
aL0L
aL0L
aL0L
aL0L
aL0L
aL0L
aL0L
aL0L
aL0L
aL0L
aL0L
aL0L
aL0L
aL0L
aL0L
aL0L
aL0L
aL0L
aL0L
aL0L
aL0L
aL0L
aL0L
aL0L
aL0L
aL0L
aL0L
aL0L
aL0L
aL0L
aL0L
aL0L
aL0L
aL0L
aL0L
aL0L
aL0L
aL0L
aL0L
aL0L
aL0L
aL0L
aL0L
aL0L
atp469
Rp470
ag283
(g284
(lp471
L0L
aL0L
aL0L
aL0L
aL0L
aL0L
aL0L
aL0L
aL0L
aL0L
aL0L
aL0L
aL0L
aL0L
aL0L
aL0L
aL0L
aL0L
aL0L
aL0L
aL0L
aL0L
aL0L
aL0L
aL0L
aL0L
aL0L
aL0L
aL0L
aL0L
aL0L
aL0L
aL0L
aL0L
aL0L
aL0L
aL0L
aL0L
aL0L
aL0L
aL0L
aL0L
aL0L
aL0L
aL0L
aL0L
aL0L
aL0L
aL0L
aL0L
aL0L
aL0L
aL0L
aL0L
aL0L
aL0L
aL0L
aL0L
aL0L
aL0L
aL0L
aL0L
aL0L
aL0L
aL0L
aL0L
aL0L
aL0L
aL0L
aL0L
aL0L
aL0L
aL0L
aL0L
aL0L
aL0L
aL0L
aL0L
aL0L
aL0L
aL0L
aL0L
aL0L
aL0L
aL0L
aL0L
aL0L
aL0L
aL0L
aL0L
aL0L
aL0L
aL0L
aL0L
aL0L
aL0L
aL0L
aL0L
aL0L
aL0L
aL0L
aL0L
aL0L
aL0L
aL0L
aL0L
aL0L
aL0L
aL0L
aL0L
aL0L
aL0L
aL0L
aL0L
aL0L
aL0L
aL0L
aL0L
aL0L
aL0L
aL0L
aL0L
aL0L
aL0L
aL0L
aL0L
aL0L
aL0L
atp472
Rp473
ag283
(g284
(lp474
L0L
aL0L
aL0L
aL0L
aL0L
aL0L
aL0L
aL0L
aL0L
aL0L
aL0L
aL0L
aL0L
aL0L
aL0L
aL0L
aL0L
aL0L
aL0L
aL0L
aL0L
aL0L
aL0L
aL0L
aL0L
aL0L
aL0L
aL0L
aL0L
aL0L
aL0L
aL0L
aL0L
aL0L
aL0L
aL0L
aL0L
aL0L
aL0L
aL0L
aL0L
aL0L
aL0L
aL0L
aL0L
aL0L
aL0L
aL0L
aL0L
aL0L
aL0L
aL0L
aL0L
aL0L
aL0L
aL0L
aL0L
aL0L
aL0L
aL0L
aL0L
aL0L
aL0L
aL0L
aL0L
aL0L
aL0L
aL0L
aL0L
aL0L
aL0L
aL0L
aL0L
aL0L
aL0L
aL0L
aL0L
aL0L
aL0L
aL0L
aL0L
aL0L
aL0L
aL0L
aL0L
aL0L
aL0L
aL0L
aL0L
aL0L
aL0L
aL0L
aL0L
aL0L
aL0L
aL0L
aL0L
aL0L
aL0L
aL0L
aL0L
aL0L
aL0L
aL0L
aL0L
aL0L
aL0L
aL0L
aL0L
aL0L
aL0L
aL0L
aL0L
aL0L
aL0L
aL0L
aL0L
aL0L
aL0L
aL0L
aL0L
aL0L
aL0L
aL0L
aL0L
aL0L
aL0L
aL0L
atp475
Rp476
ag283
(g284
(lp477
L0L
aL0L
aL0L
aL0L
aL0L
aL0L
aL0L
aL0L
aL0L
aL0L
aL0L
aL0L
aL0L
aL0L
aL0L
aL0L
aL0L
aL0L
aL0L
aL0L
aL0L
aL0L
aL0L
aL0L
aL0L
aL0L
aL0L
aL0L
aL0L
aL0L
aL0L
aL0L
aL0L
aL0L
aL0L
aL0L
aL0L
aL0L
aL0L
aL0L
aL0L
aL0L
aL0L
aL0L
aL0L
aL0L
aL0L
aL0L
aL0L
aL0L
aL0L
aL0L
aL0L
aL0L
aL0L
aL0L
aL0L
aL0L
aL0L
aL0L
aL0L
aL0L
aL0L
aL0L
aL0L
aL0L
aL0L
aL0L
aL0L
aL0L
aL0L
aL0L
aL0L
aL0L
aL0L
aL0L
aL0L
aL0L
aL0L
aL0L
aL0L
aL0L
aL0L
aL0L
aL0L
aL0L
aL0L
aL0L
aL0L
aL0L
aL0L
aL0L
aL0L
aL0L
aL0L
aL0L
aL0L
aL0L
aL0L
aL0L
aL0L
aL0L
aL0L
aL0L
aL0L
aL0L
aL0L
aL0L
aL0L
aL0L
aL0L
aL0L
aL0L
aL0L
aL0L
aL0L
aL0L
aL0L
aL0L
aL0L
aL0L
aL0L
aL0L
aL0L
aL0L
aL0L
aL0L
aL0L
atp478
Rp479
ag283
(g284
(lp480
L0L
aL0L
aL0L
aL0L
aL0L
aL0L
aL0L
aL0L
aL0L
aL0L
aL0L
aL0L
aL0L
aL0L
aL0L
aL0L
aL0L
aL0L
aL0L
aL0L
aL0L
aL0L
aL0L
aL0L
aL0L
aL0L
aL0L
aL0L
aL0L
aL0L
aL0L
aL0L
aL0L
aL0L
aL0L
aL0L
aL0L
aL0L
aL0L
aL0L
aL0L
aL0L
aL0L
aL0L
aL0L
aL0L
aL0L
aL0L
aL0L
aL0L
aL0L
aL0L
aL0L
aL0L
aL0L
aL0L
aL0L
aL0L
aL0L
aL0L
aL0L
aL0L
aL0L
aL0L
aL0L
aL0L
aL0L
aL0L
aL0L
aL0L
aL0L
aL0L
aL0L
aL0L
aL0L
aL0L
aL0L
aL0L
aL0L
aL0L
aL0L
aL0L
aL0L
aL0L
aL0L
aL0L
aL0L
aL0L
aL0L
aL0L
aL0L
aL0L
aL0L
aL0L
aL0L
aL0L
aL0L
aL0L
aL0L
aL0L
aL0L
aL0L
aL0L
aL0L
aL0L
aL0L
aL0L
aL0L
aL0L
aL0L
aL0L
aL0L
aL0L
aL0L
aL0L
aL0L
aL0L
aL0L
aL0L
aL0L
aL0L
aL0L
aL0L
aL0L
aL0L
aL0L
aL0L
aL0L
atp481
Rp482
ag283
(g284
(lp483
L0L
aL0L
aL0L
aL0L
aL0L
aL0L
aL0L
aL0L
aL0L
aL0L
aL0L
aL0L
aL0L
aL0L
aL0L
aL0L
aL0L
aL0L
aL0L
aL0L
aL0L
aL0L
aL0L
aL0L
aL0L
aL0L
aL0L
aL0L
aL0L
aL0L
aL0L
aL0L
aL0L
aL0L
aL0L
aL0L
aL0L
aL0L
aL0L
aL0L
aL0L
aL0L
aL0L
aL0L
aL0L
aL0L
aL0L
aL0L
aL0L
aL0L
aL0L
aL0L
aL0L
aL0L
aL0L
aL0L
aL0L
aL0L
aL0L
aL0L
aL0L
aL0L
aL0L
aL0L
aL0L
aL0L
aL0L
aL0L
aL0L
aL0L
aL0L
aL0L
aL0L
aL0L
aL0L
aL0L
aL0L
aL0L
aL0L
aL0L
aL0L
aL0L
aL0L
aL0L
aL0L
aL0L
aL0L
aL0L
aL0L
aL0L
aL0L
aL0L
aL0L
aL0L
aL0L
aL0L
aL0L
aL0L
aL0L
aL0L
aL0L
aL0L
aL0L
aL0L
aL0L
aL0L
aL0L
aL0L
aL0L
aL0L
aL0L
aL0L
aL0L
aL0L
aL0L
aL0L
aL0L
aL0L
aL0L
aL0L
aL0L
aL0L
aL0L
aL0L
aL0L
aL0L
aL0L
aL0L
atp484
Rp485
ag283
(g284
(lp486
L0L
aL0L
aL0L
aL0L
aL0L
aL0L
aL0L
aL0L
aL0L
aL0L
aL0L
aL0L
aL0L
aL0L
aL0L
aL0L
aL0L
aL0L
aL0L
aL0L
aL0L
aL0L
aL0L
aL0L
aL0L
aL0L
aL0L
aL0L
aL0L
aL0L
aL0L
aL0L
aL0L
aL0L
aL0L
aL0L
aL0L
aL0L
aL0L
aL0L
aL0L
aL0L
aL0L
aL0L
aL0L
aL0L
aL0L
aL0L
aL0L
aL0L
aL0L
aL0L
aL0L
aL0L
aL0L
aL0L
aL0L
aL0L
aL0L
aL0L
aL0L
aL0L
aL0L
aL0L
aL0L
aL0L
aL0L
aL0L
aL0L
aL0L
aL0L
aL0L
aL0L
aL0L
aL0L
aL0L
aL0L
aL0L
aL0L
aL0L
aL0L
aL0L
aL0L
aL0L
aL0L
aL0L
aL0L
aL0L
aL0L
aL0L
aL0L
aL0L
aL0L
aL0L
aL0L
aL0L
aL0L
aL0L
aL0L
aL0L
aL0L
aL0L
aL0L
aL0L
aL0L
aL0L
aL0L
aL0L
aL0L
aL0L
aL0L
aL0L
aL0L
aL0L
aL0L
aL0L
aL0L
aL0L
aL0L
aL0L
aL0L
aL0L
aL0L
aL0L
aL0L
aL0L
aL0L
aL0L
atp487
Rp488
ag283
(g284
(lp489
L0L
aL0L
aL0L
aL0L
aL0L
aL0L
aL0L
aL0L
aL0L
aL0L
aL0L
aL0L
aL0L
aL0L
aL0L
aL0L
aL0L
aL0L
aL0L
aL0L
aL0L
aL0L
aL0L
aL0L
aL0L
aL0L
aL0L
aL0L
aL0L
aL0L
aL0L
aL0L
aL0L
aL0L
aL0L
aL0L
aL0L
aL0L
aL0L
aL0L
aL0L
aL0L
aL0L
aL0L
aL0L
aL0L
aL0L
aL0L
aL0L
aL0L
aL0L
aL0L
aL0L
aL0L
aL0L
aL0L
aL0L
aL0L
aL0L
aL0L
aL0L
aL0L
aL0L
aL0L
aL0L
aL0L
aL0L
aL0L
aL0L
aL0L
aL0L
aL0L
aL0L
aL0L
aL0L
aL0L
aL0L
aL0L
aL0L
aL0L
aL0L
aL0L
aL0L
aL0L
aL0L
aL0L
aL0L
aL0L
aL0L
aL0L
aL0L
aL0L
aL0L
aL0L
aL0L
aL0L
aL0L
aL0L
aL0L
aL0L
aL0L
aL0L
aL0L
aL0L
aL0L
aL0L
aL0L
aL0L
aL0L
aL0L
aL0L
aL0L
aL0L
aL0L
aL0L
aL0L
aL0L
aL0L
aL0L
aL0L
aL0L
aL0L
aL0L
aL0L
aL0L
aL0L
aL0L
aL0L
atp490
Rp491
ag283
(g284
(lp492
L0L
aL0L
aL0L
aL0L
aL0L
aL0L
aL0L
aL0L
aL0L
aL0L
aL0L
aL0L
aL0L
aL0L
aL0L
aL0L
aL0L
aL0L
aL0L
aL0L
aL0L
aL0L
aL0L
aL0L
aL0L
aL0L
aL0L
aL0L
aL0L
aL0L
aL0L
aL0L
aL0L
aL0L
aL0L
aL0L
aL0L
aL0L
aL0L
aL0L
aL0L
aL0L
aL0L
aL0L
aL0L
aL0L
aL0L
aL0L
aL0L
aL0L
aL0L
aL0L
aL0L
aL0L
aL0L
aL0L
aL0L
aL0L
aL0L
aL0L
aL0L
aL0L
aL0L
aL0L
aL0L
aL0L
aL0L
aL0L
aL0L
aL0L
aL0L
aL0L
aL0L
aL0L
aL0L
aL0L
aL0L
aL0L
aL0L
aL0L
aL0L
aL0L
aL0L
aL0L
aL0L
aL0L
aL0L
aL0L
aL0L
aL0L
aL0L
aL0L
aL0L
aL0L
aL0L
aL0L
aL0L
aL0L
aL0L
aL0L
aL0L
aL0L
aL0L
aL0L
aL0L
aL0L
aL0L
aL0L
aL0L
aL0L
aL0L
aL0L
aL0L
aL0L
aL0L
aL0L
aL0L
aL0L
aL0L
aL0L
aL0L
aL0L
aL0L
aL0L
aL0L
aL0L
aL0L
aL0L
atp493
Rp494
ag283
(g284
(lp495
L0L
aL0L
aL0L
aL0L
aL0L
aL0L
aL0L
aL0L
aL0L
aL0L
aL0L
aL0L
aL0L
aL0L
aL0L
aL0L
aL0L
aL0L
aL0L
aL0L
aL0L
aL0L
aL0L
aL0L
aL0L
aL0L
aL0L
aL0L
aL0L
aL0L
aL0L
aL0L
aL0L
aL0L
aL0L
aL0L
aL0L
aL0L
aL0L
aL0L
aL0L
aL0L
aL0L
aL0L
aL0L
aL0L
aL0L
aL0L
aL0L
aL0L
aL0L
aL0L
aL0L
aL0L
aL0L
aL0L
aL0L
aL0L
aL0L
aL0L
aL0L
aL0L
aL0L
aL0L
aL0L
aL0L
aL0L
aL0L
aL0L
aL0L
aL0L
aL0L
aL0L
aL0L
aL0L
aL0L
aL0L
aL0L
aL0L
aL0L
aL0L
aL0L
aL0L
aL0L
aL0L
aL0L
aL0L
aL0L
aL0L
aL0L
aL0L
aL0L
aL0L
aL0L
aL0L
aL0L
aL0L
aL0L
aL0L
aL0L
aL0L
aL0L
aL0L
aL0L
aL0L
aL0L
aL0L
aL0L
aL0L
aL0L
aL0L
aL0L
aL0L
aL0L
aL0L
aL0L
aL0L
aL0L
aL0L
aL0L
aL0L
aL0L
aL0L
aL0L
aL0L
aL0L
aL0L
aL0L
atp496
Rp497
ag283
(g284
(lp498
L0L
aL0L
aL0L
aL0L
aL0L
aL0L
aL0L
aL0L
aL0L
aL0L
aL0L
aL0L
aL0L
aL0L
aL0L
aL0L
aL0L
aL0L
aL0L
aL0L
aL0L
aL0L
aL0L
aL0L
aL0L
aL0L
aL0L
aL0L
aL0L
aL0L
aL0L
aL0L
aL0L
aL0L
aL0L
aL0L
aL0L
aL0L
aL0L
aL0L
aL0L
aL0L
aL0L
aL0L
aL0L
aL0L
aL0L
aL0L
aL0L
aL0L
aL0L
aL0L
aL0L
aL0L
aL0L
aL0L
aL0L
aL0L
aL0L
aL0L
aL0L
aL0L
aL0L
aL0L
aL0L
aL0L
aL0L
aL0L
aL0L
aL0L
aL0L
aL0L
aL0L
aL0L
aL0L
aL0L
aL0L
aL0L
aL0L
aL0L
aL0L
aL0L
aL0L
aL0L
aL0L
aL0L
aL0L
aL0L
aL0L
aL0L
aL0L
aL0L
aL0L
aL0L
aL0L
aL0L
aL0L
aL0L
aL0L
aL0L
aL0L
aL0L
aL0L
aL0L
aL0L
aL0L
aL0L
aL0L
aL0L
aL0L
aL0L
aL0L
aL0L
aL0L
aL0L
aL0L
aL0L
aL0L
aL0L
aL0L
aL0L
aL0L
aL0L
aL0L
aL0L
aL0L
aL0L
aL0L
atp499
Rp500
ag283
(g284
(lp501
L0L
aL0L
aL0L
aL0L
aL0L
aL0L
aL0L
aL0L
aL0L
aL0L
aL0L
aL0L
aL0L
aL0L
aL0L
aL0L
aL0L
aL0L
aL0L
aL0L
aL0L
aL0L
aL0L
aL0L
aL0L
aL0L
aL0L
aL0L
aL0L
aL0L
aL0L
aL0L
aL0L
aL0L
aL0L
aL0L
aL0L
aL0L
aL0L
aL0L
aL0L
aL0L
aL0L
aL0L
aL0L
aL0L
aL0L
aL0L
aL0L
aL0L
aL0L
aL0L
aL0L
aL0L
aL0L
aL0L
aL0L
aL0L
aL0L
aL0L
aL0L
aL0L
aL0L
aL0L
aL0L
aL0L
aL0L
aL0L
aL0L
aL0L
aL0L
aL0L
aL0L
aL0L
aL0L
aL0L
aL0L
aL0L
aL0L
aL0L
aL0L
aL0L
aL0L
aL0L
aL0L
aL0L
aL0L
aL0L
aL0L
aL0L
aL0L
aL0L
aL0L
aL0L
aL0L
aL0L
aL0L
aL0L
aL0L
aL0L
aL0L
aL0L
aL0L
aL0L
aL0L
aL0L
aL0L
aL0L
aL0L
aL0L
aL0L
aL0L
aL0L
aL0L
aL0L
aL0L
aL0L
aL0L
aL0L
aL0L
aL0L
aL0L
aL0L
aL0L
aL0L
aL0L
aL0L
aL0L
atp502
Rp503
ag283
(g284
(lp504
L0L
aL0L
aL0L
aL0L
aL0L
aL0L
aL0L
aL0L
aL0L
aL0L
aL0L
aL0L
aL0L
aL0L
aL0L
aL0L
aL0L
aL0L
aL0L
aL0L
aL0L
aL0L
aL0L
aL0L
aL0L
aL0L
aL0L
aL0L
aL0L
aL0L
aL0L
aL0L
aL0L
aL0L
aL0L
aL0L
aL0L
aL0L
aL0L
aL0L
aL0L
aL0L
aL0L
aL0L
aL0L
aL0L
aL0L
aL0L
aL0L
aL0L
aL0L
aL0L
aL0L
aL0L
aL0L
aL0L
aL0L
aL0L
aL0L
aL0L
aL0L
aL0L
aL0L
aL0L
aL0L
aL0L
aL0L
aL0L
aL0L
aL0L
aL0L
aL0L
aL0L
aL0L
aL0L
aL0L
aL0L
aL0L
aL0L
aL0L
aL0L
aL0L
aL0L
aL0L
aL0L
aL0L
aL0L
aL0L
aL0L
aL0L
aL0L
aL0L
aL0L
aL0L
aL0L
aL0L
aL0L
aL0L
aL0L
aL0L
aL0L
aL0L
aL0L
aL0L
aL0L
aL0L
aL0L
aL0L
aL0L
aL0L
aL0L
aL0L
aL0L
aL0L
aL0L
aL0L
aL0L
aL0L
aL0L
aL0L
aL0L
aL0L
aL0L
aL0L
aL0L
aL0L
aL0L
aL0L
atp505
Rp506
ag283
(g284
(lp507
L0L
aL0L
aL0L
aL0L
aL0L
aL0L
aL0L
aL0L
aL0L
aL0L
aL0L
aL0L
aL0L
aL0L
aL0L
aL0L
aL0L
aL0L
aL0L
aL0L
aL0L
aL0L
aL0L
aL0L
aL0L
aL0L
aL0L
aL0L
aL0L
aL0L
aL0L
aL0L
aL0L
aL0L
aL0L
aL0L
aL0L
aL0L
aL0L
aL0L
aL0L
aL0L
aL0L
aL0L
aL0L
aL0L
aL0L
aL0L
aL0L
aL0L
aL0L
aL0L
aL0L
aL0L
aL0L
aL0L
aL0L
aL0L
aL0L
aL0L
aL0L
aL0L
aL0L
aL0L
aL0L
aL0L
aL0L
aL0L
aL0L
aL0L
aL0L
aL0L
aL0L
aL0L
aL0L
aL0L
aL0L
aL0L
aL0L
aL0L
aL0L
aL0L
aL0L
aL0L
aL0L
aL0L
aL0L
aL0L
aL0L
aL0L
aL0L
aL0L
aL0L
aL0L
aL0L
aL0L
aL0L
aL0L
aL0L
aL0L
aL0L
aL0L
aL0L
aL0L
aL0L
aL0L
aL0L
aL0L
aL0L
aL0L
aL0L
aL0L
aL0L
aL0L
aL0L
aL0L
aL0L
aL0L
aL0L
aL0L
aL0L
aL0L
aL0L
aL0L
aL0L
aL0L
aL0L
aL0L
atp508
Rp509
ag283
(g284
(lp510
L0L
aL0L
aL0L
aL0L
aL0L
aL0L
aL0L
aL0L
aL0L
aL0L
aL0L
aL0L
aL0L
aL0L
aL0L
aL0L
aL0L
aL0L
aL0L
aL0L
aL0L
aL0L
aL0L
aL0L
aL0L
aL0L
aL0L
aL0L
aL0L
aL0L
aL0L
aL0L
aL0L
aL0L
aL0L
aL0L
aL0L
aL0L
aL0L
aL0L
aL0L
aL0L
aL0L
aL0L
aL0L
aL0L
aL0L
aL0L
aL0L
aL0L
aL0L
aL0L
aL0L
aL0L
aL0L
aL0L
aL0L
aL0L
aL0L
aL0L
aL0L
aL0L
aL0L
aL0L
aL0L
aL0L
aL0L
aL0L
aL0L
aL0L
aL0L
aL0L
aL0L
aL0L
aL0L
aL0L
aL0L
aL0L
aL0L
aL0L
aL0L
aL0L
aL0L
aL0L
aL0L
aL0L
aL0L
aL0L
aL0L
aL0L
aL0L
aL0L
aL0L
aL0L
aL0L
aL0L
aL0L
aL0L
aL0L
aL0L
aL0L
aL0L
aL0L
aL0L
aL0L
aL0L
aL0L
aL0L
aL0L
aL0L
aL0L
aL0L
aL0L
aL0L
aL0L
aL0L
aL0L
aL0L
aL0L
aL0L
aL0L
aL0L
aL0L
aL0L
aL0L
aL0L
aL0L
aL0L
atp511
Rp512
ag283
(g284
(lp513
L0L
aL0L
aL0L
aL0L
aL0L
aL0L
aL0L
aL0L
aL0L
aL0L
aL0L
aL0L
aL0L
aL0L
aL0L
aL0L
aL0L
aL0L
aL0L
aL0L
aL0L
aL0L
aL0L
aL0L
aL0L
aL0L
aL0L
aL0L
aL0L
aL0L
aL0L
aL0L
aL0L
aL0L
aL0L
aL0L
aL0L
aL0L
aL0L
aL0L
aL0L
aL0L
aL0L
aL0L
aL0L
aL0L
aL0L
aL0L
aL0L
aL0L
aL0L
aL0L
aL0L
aL0L
aL0L
aL0L
aL0L
aL0L
aL0L
aL0L
aL0L
aL0L
aL0L
aL0L
aL0L
aL0L
aL0L
aL0L
aL0L
aL0L
aL0L
aL0L
aL0L
aL0L
aL0L
aL0L
aL0L
aL0L
aL0L
aL0L
aL0L
aL0L
aL0L
aL0L
aL0L
aL0L
aL0L
aL0L
aL0L
aL0L
aL0L
aL0L
aL0L
aL0L
aL0L
aL0L
aL0L
aL0L
aL0L
aL0L
aL0L
aL0L
aL0L
aL0L
aL0L
aL0L
aL0L
aL0L
aL0L
aL0L
aL0L
aL0L
aL0L
aL0L
aL0L
aL0L
aL0L
aL0L
aL0L
aL0L
aL0L
aL0L
aL0L
aL0L
aL0L
aL0L
aL0L
aL0L
atp514
Rp515
ag283
(g284
(lp516
L0L
aL0L
aL0L
aL0L
aL0L
aL0L
aL0L
aL0L
aL0L
aL0L
aL0L
aL0L
aL0L
aL0L
aL0L
aL0L
aL0L
aL0L
aL0L
aL0L
aL0L
aL0L
aL0L
aL0L
aL0L
aL0L
aL0L
aL0L
aL0L
aL0L
aL0L
aL0L
aL0L
aL0L
aL0L
aL0L
aL0L
aL0L
aL0L
aL0L
aL0L
aL0L
aL0L
aL0L
aL0L
aL0L
aL0L
aL0L
aL0L
aL0L
aL0L
aL0L
aL0L
aL0L
aL0L
aL0L
aL0L
aL0L
aL0L
aL0L
aL0L
aL0L
aL0L
aL0L
aL0L
aL0L
aL0L
aL0L
aL0L
aL0L
aL0L
aL0L
aL0L
aL0L
aL0L
aL0L
aL0L
aL0L
aL0L
aL0L
aL0L
aL0L
aL0L
aL0L
aL0L
aL0L
aL0L
aL0L
aL0L
aL0L
aL0L
aL0L
aL0L
aL0L
aL0L
aL0L
aL0L
aL0L
aL0L
aL0L
aL0L
aL0L
aL0L
aL0L
aL0L
aL0L
aL0L
aL0L
aL0L
aL0L
aL0L
aL0L
aL0L
aL0L
aL0L
aL0L
aL0L
aL0L
aL0L
aL0L
aL0L
aL0L
aL0L
aL0L
aL0L
aL0L
aL0L
aL0L
atp517
Rp518
ag283
(g284
(lp519
L0L
aL0L
aL0L
aL0L
aL0L
aL0L
aL0L
aL0L
aL0L
aL0L
aL0L
aL0L
aL0L
aL0L
aL0L
aL0L
aL0L
aL0L
aL0L
aL0L
aL0L
aL0L
aL0L
aL0L
aL0L
aL0L
aL0L
aL0L
aL0L
aL0L
aL0L
aL0L
aL0L
aL0L
aL0L
aL0L
aL0L
aL0L
aL0L
aL0L
aL0L
aL0L
aL0L
aL0L
aL0L
aL0L
aL0L
aL0L
aL0L
aL0L
aL0L
aL0L
aL0L
aL0L
aL0L
aL0L
aL0L
aL0L
aL0L
aL0L
aL0L
aL0L
aL0L
aL0L
aL0L
aL0L
aL0L
aL0L
aL0L
aL0L
aL0L
aL0L
aL0L
aL0L
aL0L
aL0L
aL0L
aL0L
aL0L
aL0L
aL0L
aL0L
aL0L
aL0L
aL0L
aL0L
aL0L
aL0L
aL0L
aL0L
aL0L
aL0L
aL0L
aL0L
aL0L
aL0L
aL0L
aL0L
aL0L
aL0L
aL0L
aL0L
aL0L
aL0L
aL0L
aL0L
aL0L
aL0L
aL0L
aL0L
aL0L
aL0L
aL0L
aL0L
aL0L
aL0L
aL0L
aL0L
aL0L
aL0L
aL0L
aL0L
aL0L
aL0L
aL0L
aL0L
aL0L
aL0L
atp520
Rp521
ag283
(g284
(lp522
L0L
aL0L
aL0L
aL0L
aL0L
aL0L
aL0L
aL0L
aL0L
aL0L
aL0L
aL0L
aL0L
aL0L
aL0L
aL0L
aL0L
aL0L
aL0L
aL0L
aL0L
aL0L
aL0L
aL0L
aL0L
aL0L
aL0L
aL0L
aL0L
aL0L
aL0L
aL0L
aL0L
aL0L
aL0L
aL0L
aL0L
aL0L
aL0L
aL0L
aL0L
aL0L
aL0L
aL0L
aL0L
aL0L
aL0L
aL0L
aL0L
aL0L
aL0L
aL0L
aL0L
aL0L
aL0L
aL0L
aL0L
aL0L
aL0L
aL0L
aL0L
aL0L
aL0L
aL0L
aL0L
aL0L
aL0L
aL0L
aL0L
aL0L
aL0L
aL0L
aL0L
aL0L
aL0L
aL0L
aL0L
aL0L
aL0L
aL0L
aL0L
aL0L
aL0L
aL0L
aL0L
aL0L
aL0L
aL0L
aL0L
aL0L
aL0L
aL0L
aL0L
aL0L
aL0L
aL0L
aL0L
aL0L
aL0L
aL0L
aL0L
aL0L
aL0L
aL0L
aL0L
aL0L
aL0L
aL0L
aL0L
aL0L
aL0L
aL0L
aL0L
aL0L
aL0L
aL0L
aL0L
aL0L
aL0L
aL0L
aL0L
aL0L
aL0L
aL0L
aL0L
aL0L
aL0L
aL0L
atp523
Rp524
ag283
(g284
(lp525
L0L
aL0L
aL0L
aL0L
aL0L
aL0L
aL0L
aL0L
aL0L
aL0L
aL0L
aL0L
aL0L
aL0L
aL0L
aL0L
aL0L
aL0L
aL0L
aL0L
aL0L
aL0L
aL0L
aL0L
aL0L
aL0L
aL0L
aL0L
aL0L
aL0L
aL0L
aL0L
aL0L
aL0L
aL0L
aL0L
aL0L
aL0L
aL0L
aL0L
aL0L
aL0L
aL0L
aL0L
aL0L
aL0L
aL0L
aL0L
aL0L
aL0L
aL0L
aL0L
aL0L
aL0L
aL0L
aL0L
aL0L
aL0L
aL0L
aL0L
aL0L
aL0L
aL0L
aL0L
aL0L
aL0L
aL0L
aL0L
aL0L
aL0L
aL0L
aL0L
aL0L
aL0L
aL0L
aL0L
aL0L
aL0L
aL0L
aL0L
aL0L
aL0L
aL0L
aL0L
aL0L
aL0L
aL0L
aL0L
aL0L
aL0L
aL0L
aL0L
aL0L
aL0L
aL0L
aL0L
aL0L
aL0L
aL0L
aL0L
aL0L
aL0L
aL0L
aL0L
aL0L
aL0L
aL0L
aL0L
aL0L
aL0L
aL0L
aL0L
aL0L
aL0L
aL0L
aL0L
aL0L
aL0L
aL0L
aL0L
aL0L
aL0L
aL0L
aL0L
aL0L
aL0L
aL0L
aL0L
atp526
Rp527
ag283
(g284
(lp528
L0L
aL0L
aL0L
aL0L
aL0L
aL0L
aL0L
aL0L
aL0L
aL0L
aL0L
aL0L
aL0L
aL0L
aL0L
aL0L
aL0L
aL0L
aL0L
aL0L
aL0L
aL0L
aL0L
aL0L
aL0L
aL0L
aL0L
aL0L
aL0L
aL0L
aL0L
aL0L
aL0L
aL0L
aL0L
aL0L
aL0L
aL0L
aL0L
aL0L
aL0L
aL0L
aL0L
aL0L
aL0L
aL0L
aL0L
aL0L
aL0L
aL0L
aL0L
aL0L
aL0L
aL0L
aL0L
aL0L
aL0L
aL0L
aL0L
aL0L
aL0L
aL0L
aL0L
aL0L
aL0L
aL0L
aL0L
aL0L
aL0L
aL0L
aL0L
aL0L
aL0L
aL0L
aL0L
aL0L
aL0L
aL0L
aL0L
aL0L
aL0L
aL0L
aL0L
aL0L
aL0L
aL0L
aL0L
aL0L
aL0L
aL0L
aL0L
aL0L
aL0L
aL0L
aL0L
aL0L
aL0L
aL0L
aL0L
aL0L
aL0L
aL0L
aL0L
aL0L
aL0L
aL0L
aL0L
aL0L
aL0L
aL0L
aL0L
aL0L
aL0L
aL0L
aL0L
aL0L
aL0L
aL0L
aL0L
aL0L
aL0L
aL0L
aL0L
aL0L
aL0L
aL0L
aL0L
aL0L
atp529
Rp530
ag283
(g284
(lp531
L0L
aL0L
aL0L
aL0L
aL0L
aL0L
aL0L
aL0L
aL0L
aL0L
aL0L
aL0L
aL0L
aL0L
aL0L
aL0L
aL0L
aL0L
aL0L
aL0L
aL0L
aL0L
aL0L
aL0L
aL0L
aL0L
aL0L
aL0L
aL0L
aL0L
aL0L
aL0L
aL0L
aL0L
aL0L
aL0L
aL0L
aL0L
aL0L
aL0L
aL0L
aL0L
aL0L
aL0L
aL0L
aL0L
aL0L
aL0L
aL0L
aL0L
aL0L
aL0L
aL0L
aL0L
aL0L
aL0L
aL0L
aL0L
aL0L
aL0L
aL0L
aL0L
aL0L
aL0L
aL0L
aL0L
aL0L
aL0L
aL0L
aL0L
aL0L
aL0L
aL0L
aL0L
aL0L
aL0L
aL0L
aL0L
aL0L
aL0L
aL0L
aL0L
aL0L
aL0L
aL0L
aL0L
aL0L
aL0L
aL0L
aL0L
aL0L
aL0L
aL0L
aL0L
aL0L
aL0L
aL0L
aL0L
aL0L
aL0L
aL0L
aL0L
aL0L
aL0L
aL0L
aL0L
aL0L
aL0L
aL0L
aL0L
aL0L
aL0L
aL0L
aL0L
aL0L
aL0L
aL0L
aL0L
aL0L
aL0L
aL0L
aL0L
aL0L
aL0L
aL0L
aL0L
aL0L
aL0L
atp532
Rp533
ag283
(g284
(lp534
L0L
aL0L
aL0L
aL0L
aL0L
aL0L
aL0L
aL0L
aL0L
aL0L
aL0L
aL0L
aL0L
aL0L
aL0L
aL0L
aL0L
aL0L
aL0L
aL0L
aL0L
aL0L
aL0L
aL0L
aL0L
aL0L
aL0L
aL0L
aL0L
aL0L
aL0L
aL0L
aL0L
aL0L
aL0L
aL0L
aL0L
aL0L
aL0L
aL0L
aL0L
aL0L
aL0L
aL0L
aL0L
aL0L
aL0L
aL0L
aL0L
aL0L
aL0L
aL0L
aL0L
aL0L
aL0L
aL0L
aL0L
aL0L
aL0L
aL0L
aL0L
aL0L
aL0L
aL0L
aL0L
aL0L
aL0L
aL0L
aL0L
aL0L
aL0L
aL0L
aL0L
aL0L
aL0L
aL0L
aL0L
aL0L
aL0L
aL0L
aL0L
aL0L
aL0L
aL0L
aL0L
aL0L
aL0L
aL0L
aL0L
aL0L
aL0L
aL0L
aL0L
aL0L
aL0L
aL0L
aL0L
aL0L
aL0L
aL0L
aL0L
aL0L
aL0L
aL0L
aL0L
aL0L
aL0L
aL0L
aL0L
aL0L
aL0L
aL0L
aL0L
aL0L
aL0L
aL0L
aL0L
aL0L
aL0L
aL0L
aL0L
aL0L
aL0L
aL0L
aL0L
aL0L
aL0L
aL0L
atp535
Rp536
ag283
(g284
(lp537
L0L
aL0L
aL0L
aL0L
aL0L
aL0L
aL0L
aL0L
aL0L
aL0L
aL0L
aL0L
aL0L
aL0L
aL0L
aL0L
aL0L
aL0L
aL0L
aL0L
aL0L
aL0L
aL0L
aL0L
aL0L
aL0L
aL0L
aL0L
aL0L
aL0L
aL0L
aL0L
aL0L
aL0L
aL0L
aL0L
aL0L
aL0L
aL0L
aL0L
aL0L
aL0L
aL0L
aL0L
aL0L
aL0L
aL0L
aL0L
aL0L
aL0L
aL0L
aL0L
aL0L
aL0L
aL0L
aL0L
aL0L
aL0L
aL0L
aL0L
aL0L
aL0L
aL0L
aL0L
aL0L
aL0L
aL0L
aL0L
aL0L
aL0L
aL0L
aL0L
aL0L
aL0L
aL0L
aL0L
aL0L
aL0L
aL0L
aL0L
aL0L
aL0L
aL0L
aL0L
aL0L
aL0L
aL0L
aL0L
aL0L
aL0L
aL0L
aL0L
aL0L
aL0L
aL0L
aL0L
aL0L
aL0L
aL0L
aL0L
aL0L
aL0L
aL0L
aL0L
aL0L
aL0L
aL0L
aL0L
aL0L
aL0L
aL0L
aL0L
aL0L
aL0L
aL0L
aL0L
aL0L
aL0L
aL0L
aL0L
aL0L
aL0L
aL0L
aL0L
aL0L
aL0L
aL0L
aL0L
atp538
Rp539
ag283
(g284
(lp540
L0L
aL0L
aL0L
aL0L
aL0L
aL0L
aL0L
aL0L
aL0L
aL0L
aL0L
aL0L
aL0L
aL0L
aL0L
aL0L
aL0L
aL0L
aL0L
aL0L
aL0L
aL0L
aL0L
aL0L
aL0L
aL0L
aL0L
aL0L
aL0L
aL0L
aL0L
aL0L
aL0L
aL0L
aL0L
aL0L
aL0L
aL0L
aL0L
aL0L
aL0L
aL0L
aL0L
aL0L
aL0L
aL0L
aL0L
aL0L
aL0L
aL0L
aL0L
aL0L
aL0L
aL0L
aL0L
aL0L
aL0L
aL0L
aL0L
aL0L
aL0L
aL0L
aL0L
aL0L
aL0L
aL0L
aL0L
aL0L
aL0L
aL0L
aL0L
aL0L
aL0L
aL0L
aL0L
aL0L
aL0L
aL0L
aL0L
aL0L
aL0L
aL0L
aL0L
aL0L
aL0L
aL0L
aL0L
aL0L
aL0L
aL0L
aL0L
aL0L
aL0L
aL0L
aL0L
aL0L
aL0L
aL0L
aL0L
aL0L
aL0L
aL0L
aL0L
aL0L
aL0L
aL0L
aL0L
aL0L
aL0L
aL0L
aL0L
aL0L
aL0L
aL0L
aL0L
aL0L
aL0L
aL0L
aL0L
aL0L
aL0L
aL0L
aL0L
aL0L
aL0L
aL0L
aL0L
aL0L
atp541
Rp542
ag283
(g284
(lp543
L0L
aL0L
aL0L
aL0L
aL0L
aL0L
aL0L
aL0L
aL0L
aL0L
aL0L
aL0L
aL0L
aL0L
aL0L
aL0L
aL0L
aL0L
aL0L
aL0L
aL0L
aL0L
aL0L
aL0L
aL0L
aL0L
aL0L
aL0L
aL0L
aL0L
aL0L
aL0L
aL0L
aL0L
aL0L
aL0L
aL0L
aL0L
aL0L
aL0L
aL0L
aL0L
aL0L
aL0L
aL0L
aL0L
aL0L
aL0L
aL0L
aL0L
aL0L
aL0L
aL0L
aL0L
aL0L
aL0L
aL0L
aL0L
aL0L
aL0L
aL0L
aL0L
aL0L
aL0L
aL0L
aL0L
aL0L
aL0L
aL0L
aL0L
aL0L
aL0L
aL0L
aL0L
aL0L
aL0L
aL0L
aL0L
aL0L
aL0L
aL0L
aL0L
aL0L
aL0L
aL0L
aL0L
aL0L
aL0L
aL0L
aL0L
aL0L
aL0L
aL0L
aL0L
aL0L
aL0L
aL0L
aL0L
aL0L
aL0L
aL0L
aL0L
aL0L
aL0L
aL0L
aL0L
aL0L
aL0L
aL0L
aL0L
aL0L
aL0L
aL0L
aL0L
aL0L
aL0L
aL0L
aL0L
aL0L
aL0L
aL0L
aL0L
aL0L
aL0L
aL0L
aL0L
aL0L
aL0L
atp544
Rp545
ag283
(g284
(lp546
L0L
aL0L
aL0L
aL0L
aL0L
aL0L
aL0L
aL0L
aL0L
aL0L
aL0L
aL0L
aL0L
aL0L
aL0L
aL0L
aL0L
aL0L
aL0L
aL0L
aL0L
aL0L
aL0L
aL0L
aL0L
aL0L
aL0L
aL0L
aL0L
aL0L
aL0L
aL0L
aL0L
aL0L
aL0L
aL0L
aL0L
aL0L
aL0L
aL0L
aL0L
aL0L
aL0L
aL0L
aL0L
aL0L
aL0L
aL0L
aL0L
aL0L
aL0L
aL0L
aL0L
aL0L
aL0L
aL0L
aL0L
aL0L
aL0L
aL0L
aL0L
aL0L
aL0L
aL0L
aL0L
aL0L
aL0L
aL0L
aL0L
aL0L
aL0L
aL0L
aL0L
aL0L
aL0L
aL0L
aL0L
aL0L
aL0L
aL0L
aL0L
aL0L
aL0L
aL0L
aL0L
aL0L
aL0L
aL0L
aL0L
aL0L
aL0L
aL0L
aL0L
aL0L
aL0L
aL0L
aL0L
aL0L
aL0L
aL0L
aL0L
aL0L
aL0L
aL0L
aL0L
aL0L
aL0L
aL0L
aL0L
aL0L
aL0L
aL0L
aL0L
aL0L
aL0L
aL0L
aL0L
aL0L
aL0L
aL0L
aL0L
aL0L
aL0L
aL0L
aL0L
aL0L
aL0L
aL0L
atp547
Rp548
ag283
(g284
(lp549
L0L
aL0L
aL0L
aL0L
aL0L
aL0L
aL0L
aL0L
aL0L
aL0L
aL0L
aL0L
aL0L
aL0L
aL0L
aL0L
aL0L
aL0L
aL0L
aL0L
aL0L
aL0L
aL0L
aL0L
aL0L
aL0L
aL0L
aL0L
aL0L
aL0L
aL0L
aL0L
aL0L
aL0L
aL0L
aL0L
aL0L
aL0L
aL0L
aL0L
aL0L
aL0L
aL0L
aL0L
aL0L
aL0L
aL0L
aL0L
aL0L
aL0L
aL0L
aL0L
aL0L
aL0L
aL0L
aL0L
aL0L
aL0L
aL0L
aL0L
aL0L
aL0L
aL0L
aL0L
aL0L
aL0L
aL0L
aL0L
aL0L
aL0L
aL0L
aL0L
aL0L
aL0L
aL0L
aL0L
aL0L
aL0L
aL0L
aL0L
aL0L
aL0L
aL0L
aL0L
aL0L
aL0L
aL0L
aL0L
aL0L
aL0L
aL0L
aL0L
aL0L
aL0L
aL0L
aL0L
aL0L
aL0L
aL0L
aL0L
aL0L
aL0L
aL0L
aL0L
aL0L
aL0L
aL0L
aL0L
aL0L
aL0L
aL0L
aL0L
aL0L
aL0L
aL0L
aL0L
aL0L
aL0L
aL0L
aL0L
aL0L
aL0L
aL0L
aL0L
aL0L
aL0L
aL0L
aL0L
atp550
Rp551
ag283
(g284
(lp552
L0L
aL0L
aL0L
aL0L
aL0L
aL0L
aL0L
aL0L
aL0L
aL0L
aL0L
aL0L
aL0L
aL0L
aL0L
aL0L
aL0L
aL0L
aL0L
aL0L
aL0L
aL0L
aL0L
aL0L
aL0L
aL0L
aL0L
aL0L
aL0L
aL0L
aL0L
aL0L
aL0L
aL0L
aL0L
aL0L
aL0L
aL0L
aL0L
aL0L
aL0L
aL0L
aL0L
aL0L
aL0L
aL0L
aL0L
aL0L
aL0L
aL0L
aL0L
aL0L
aL0L
aL0L
aL0L
aL0L
aL0L
aL0L
aL0L
aL0L
aL0L
aL0L
aL0L
aL0L
aL0L
aL0L
aL0L
aL0L
aL0L
aL0L
aL0L
aL0L
aL0L
aL0L
aL0L
aL0L
aL0L
aL0L
aL0L
aL0L
aL0L
aL0L
aL0L
aL0L
aL0L
aL0L
aL0L
aL0L
aL0L
aL0L
aL0L
aL0L
aL0L
aL0L
aL0L
aL0L
aL0L
aL0L
aL0L
aL0L
aL0L
aL0L
aL0L
aL0L
aL0L
aL0L
aL0L
aL0L
aL0L
aL0L
aL0L
aL0L
aL0L
aL0L
aL0L
aL0L
aL0L
aL0L
aL0L
aL0L
aL0L
aL0L
aL0L
aL0L
aL0L
aL0L
aL0L
aL0L
atp553
Rp554
ag283
(g284
(lp555
L0L
aL0L
aL0L
aL0L
aL0L
aL0L
aL0L
aL0L
aL0L
aL0L
aL0L
aL0L
aL0L
aL0L
aL0L
aL0L
aL0L
aL0L
aL0L
aL0L
aL0L
aL0L
aL0L
aL0L
aL0L
aL0L
aL0L
aL0L
aL0L
aL0L
aL0L
aL0L
aL0L
aL0L
aL0L
aL0L
aL0L
aL0L
aL0L
aL0L
aL0L
aL0L
aL0L
aL0L
aL0L
aL0L
aL0L
aL0L
aL0L
aL0L
aL0L
aL0L
aL0L
aL0L
aL0L
aL0L
aL0L
aL0L
aL0L
aL0L
aL0L
aL0L
aL0L
aL0L
aL0L
aL0L
aL0L
aL0L
aL0L
aL0L
aL0L
aL0L
aL0L
aL0L
aL0L
aL0L
aL0L
aL0L
aL0L
aL0L
aL0L
aL0L
aL0L
aL0L
aL0L
aL0L
aL0L
aL0L
aL0L
aL0L
aL0L
aL0L
aL0L
aL0L
aL0L
aL0L
aL0L
aL0L
aL0L
aL0L
aL0L
aL0L
aL0L
aL0L
aL0L
aL0L
aL0L
aL0L
aL0L
aL0L
aL0L
aL0L
aL0L
aL0L
aL0L
aL0L
aL0L
aL0L
aL0L
aL0L
aL0L
aL0L
aL0L
aL0L
aL0L
aL0L
aL0L
aL0L
atp556
Rp557
ag283
(g284
(lp558
L0L
aL0L
aL0L
aL0L
aL0L
aL0L
aL0L
aL0L
aL0L
aL0L
aL0L
aL0L
aL0L
aL0L
aL0L
aL0L
aL0L
aL0L
aL0L
aL0L
aL0L
aL0L
aL0L
aL0L
aL0L
aL0L
aL0L
aL0L
aL0L
aL0L
aL0L
aL0L
aL0L
aL0L
aL0L
aL0L
aL0L
aL0L
aL0L
aL0L
aL0L
aL0L
aL0L
aL0L
aL0L
aL0L
aL0L
aL0L
aL0L
aL0L
aL0L
aL0L
aL0L
aL0L
aL0L
aL0L
aL0L
aL0L
aL0L
aL0L
aL0L
aL0L
aL0L
aL0L
aL0L
aL0L
aL0L
aL0L
aL0L
aL0L
aL0L
aL0L
aL0L
aL0L
aL0L
aL0L
aL0L
aL0L
aL0L
aL0L
aL0L
aL0L
aL0L
aL0L
aL0L
aL0L
aL0L
aL0L
aL0L
aL0L
aL0L
aL0L
aL0L
aL0L
aL0L
aL0L
aL0L
aL0L
aL0L
aL0L
aL0L
aL0L
aL0L
aL0L
aL0L
aL0L
aL0L
aL0L
aL0L
aL0L
aL0L
aL0L
aL0L
aL0L
aL0L
aL0L
aL0L
aL0L
aL0L
aL0L
aL0L
aL0L
aL0L
aL0L
aL0L
aL0L
aL0L
aL0L
atp559
Rp560
ag283
(g284
(lp561
L0L
aL0L
aL0L
aL0L
aL0L
aL0L
aL0L
aL0L
aL0L
aL0L
aL0L
aL0L
aL0L
aL0L
aL0L
aL0L
aL0L
aL0L
aL0L
aL0L
aL0L
aL0L
aL0L
aL0L
aL0L
aL0L
aL0L
aL0L
aL0L
aL0L
aL0L
aL0L
aL0L
aL0L
aL0L
aL0L
aL0L
aL0L
aL0L
aL0L
aL0L
aL0L
aL0L
aL0L
aL0L
aL0L
aL0L
aL0L
aL0L
aL0L
aL0L
aL0L
aL0L
aL0L
aL0L
aL0L
aL0L
aL0L
aL0L
aL0L
aL0L
aL0L
aL0L
aL0L
aL0L
aL0L
aL0L
aL0L
aL0L
aL0L
aL0L
aL0L
aL0L
aL0L
aL0L
aL0L
aL0L
aL0L
aL0L
aL0L
aL0L
aL0L
aL0L
aL0L
aL0L
aL0L
aL0L
aL0L
aL0L
aL0L
aL0L
aL0L
aL0L
aL0L
aL0L
aL0L
aL0L
aL0L
aL0L
aL0L
aL0L
aL0L
aL0L
aL0L
aL0L
aL0L
aL0L
aL0L
aL0L
aL0L
aL0L
aL0L
aL0L
aL0L
aL0L
aL0L
aL0L
aL0L
aL0L
aL0L
aL0L
aL0L
aL0L
aL0L
aL0L
aL0L
aL0L
aL0L
atp562
Rp563
ag283
(g284
(lp564
L0L
aL0L
aL0L
aL0L
aL0L
aL0L
aL0L
aL0L
aL0L
aL0L
aL0L
aL0L
aL0L
aL0L
aL0L
aL0L
aL0L
aL0L
aL0L
aL0L
aL0L
aL0L
aL0L
aL0L
aL0L
aL0L
aL0L
aL0L
aL0L
aL0L
aL0L
aL0L
aL0L
aL0L
aL0L
aL0L
aL0L
aL0L
aL0L
aL0L
aL0L
aL0L
aL0L
aL0L
aL0L
aL0L
aL0L
aL0L
aL0L
aL0L
aL0L
aL0L
aL0L
aL0L
aL0L
aL0L
aL0L
aL0L
aL0L
aL0L
aL0L
aL0L
aL0L
aL0L
aL0L
aL0L
aL0L
aL0L
aL0L
aL0L
aL0L
aL0L
aL0L
aL0L
aL0L
aL0L
aL0L
aL0L
aL0L
aL0L
aL0L
aL0L
aL0L
aL0L
aL0L
aL0L
aL0L
aL0L
aL0L
aL0L
aL0L
aL0L
aL0L
aL0L
aL0L
aL0L
aL0L
aL0L
aL0L
aL0L
aL0L
aL0L
aL0L
aL0L
aL0L
aL0L
aL0L
aL0L
aL0L
aL0L
aL0L
aL0L
aL0L
aL0L
aL0L
aL0L
aL0L
aL0L
aL0L
aL0L
aL0L
aL0L
aL0L
aL0L
aL0L
aL0L
aL0L
aL0L
atp565
Rp566
ag283
(g284
(lp567
L0L
aL0L
aL0L
aL0L
aL0L
aL0L
aL0L
aL0L
aL0L
aL0L
aL0L
aL0L
aL0L
aL0L
aL0L
aL0L
aL0L
aL0L
aL0L
aL0L
aL0L
aL0L
aL0L
aL0L
aL0L
aL0L
aL0L
aL0L
aL0L
aL0L
aL0L
aL0L
aL0L
aL0L
aL0L
aL0L
aL0L
aL0L
aL0L
aL0L
aL0L
aL0L
aL0L
aL0L
aL0L
aL0L
aL0L
aL0L
aL0L
aL0L
aL0L
aL0L
aL0L
aL0L
aL0L
aL0L
aL0L
aL0L
aL0L
aL0L
aL0L
aL0L
aL0L
aL0L
aL0L
aL0L
aL0L
aL0L
aL0L
aL0L
aL0L
aL0L
aL0L
aL0L
aL0L
aL0L
aL0L
aL0L
aL0L
aL0L
aL0L
aL0L
aL0L
aL0L
aL0L
aL0L
aL0L
aL0L
aL0L
aL0L
aL0L
aL0L
aL0L
aL0L
aL0L
aL0L
aL0L
aL0L
aL0L
aL0L
aL0L
aL0L
aL0L
aL0L
aL0L
aL0L
aL0L
aL0L
aL0L
aL0L
aL0L
aL0L
aL0L
aL0L
aL0L
aL0L
aL0L
aL0L
aL0L
aL0L
aL0L
aL0L
aL0L
aL0L
aL0L
aL0L
aL0L
aL0L
atp568
Rp569
ag283
(g284
(lp570
L0L
aL0L
aL0L
aL0L
aL0L
aL0L
aL0L
aL0L
aL0L
aL0L
aL0L
aL0L
aL0L
aL0L
aL0L
aL0L
aL0L
aL0L
aL0L
aL0L
aL0L
aL0L
aL0L
aL0L
aL0L
aL0L
aL0L
aL0L
aL0L
aL0L
aL0L
aL0L
aL0L
aL0L
aL0L
aL0L
aL0L
aL0L
aL0L
aL0L
aL0L
aL0L
aL0L
aL0L
aL0L
aL0L
aL0L
aL0L
aL0L
aL0L
aL0L
aL0L
aL0L
aL0L
aL0L
aL0L
aL0L
aL0L
aL0L
aL0L
aL0L
aL0L
aL0L
aL0L
aL0L
aL0L
aL0L
aL0L
aL0L
aL0L
aL0L
aL0L
aL0L
aL0L
aL0L
aL0L
aL0L
aL0L
aL0L
aL0L
aL0L
aL0L
aL0L
aL0L
aL0L
aL0L
aL0L
aL0L
aL0L
aL0L
aL0L
aL0L
aL0L
aL0L
aL0L
aL0L
aL0L
aL0L
aL0L
aL0L
aL0L
aL0L
aL0L
aL0L
aL0L
aL0L
aL0L
aL0L
aL0L
aL0L
aL0L
aL0L
aL0L
aL0L
aL0L
aL0L
aL0L
aL0L
aL0L
aL0L
aL0L
aL0L
aL0L
aL0L
aL0L
aL0L
aL0L
aL0L
atp571
Rp572
ag283
(g284
(lp573
L0L
aL0L
aL0L
aL0L
aL0L
aL0L
aL0L
aL0L
aL0L
aL0L
aL0L
aL0L
aL0L
aL0L
aL0L
aL0L
aL0L
aL0L
aL0L
aL0L
aL0L
aL0L
aL0L
aL0L
aL0L
aL0L
aL0L
aL0L
aL0L
aL0L
aL0L
aL0L
aL0L
aL0L
aL0L
aL0L
aL0L
aL0L
aL0L
aL0L
aL0L
aL0L
aL0L
aL0L
aL0L
aL0L
aL0L
aL0L
aL0L
aL0L
aL0L
aL0L
aL0L
aL0L
aL0L
aL0L
aL0L
aL0L
aL0L
aL0L
aL0L
aL0L
aL0L
aL0L
aL0L
aL0L
aL0L
aL0L
aL0L
aL0L
aL0L
aL0L
aL0L
aL0L
aL0L
aL0L
aL0L
aL0L
aL0L
aL0L
aL0L
aL0L
aL0L
aL0L
aL0L
aL0L
aL0L
aL0L
aL0L
aL0L
aL0L
aL0L
aL0L
aL0L
aL0L
aL0L
aL0L
aL0L
aL0L
aL0L
aL0L
aL0L
aL0L
aL0L
aL0L
aL0L
aL0L
aL0L
aL0L
aL0L
aL0L
aL0L
aL0L
aL0L
aL0L
aL0L
aL0L
aL0L
aL0L
aL0L
aL0L
aL0L
aL0L
aL0L
aL0L
aL0L
aL0L
aL0L
atp574
Rp575
ag283
(g284
(lp576
L0L
aL0L
aL0L
aL0L
aL0L
aL0L
aL0L
aL0L
aL0L
aL0L
aL0L
aL0L
aL0L
aL0L
aL0L
aL0L
aL0L
aL0L
aL0L
aL0L
aL0L
aL0L
aL0L
aL0L
aL0L
aL0L
aL0L
aL0L
aL0L
aL0L
aL0L
aL0L
aL0L
aL0L
aL0L
aL0L
aL0L
aL0L
aL0L
aL0L
aL0L
aL0L
aL0L
aL0L
aL0L
aL0L
aL0L
aL0L
aL0L
aL0L
aL0L
aL0L
aL0L
aL0L
aL0L
aL0L
aL0L
aL0L
aL0L
aL0L
aL0L
aL0L
aL0L
aL0L
aL0L
aL0L
aL0L
aL0L
aL0L
aL0L
aL0L
aL0L
aL0L
aL0L
aL0L
aL0L
aL0L
aL0L
aL0L
aL0L
aL0L
aL0L
aL0L
aL0L
aL0L
aL0L
aL0L
aL0L
aL0L
aL0L
aL0L
aL0L
aL0L
aL0L
aL0L
aL0L
aL0L
aL0L
aL0L
aL0L
aL0L
aL0L
aL0L
aL0L
aL0L
aL0L
aL0L
aL0L
aL0L
aL0L
aL0L
aL0L
aL0L
aL0L
aL0L
aL0L
aL0L
aL0L
aL0L
aL0L
aL0L
aL0L
aL0L
aL0L
aL0L
aL0L
aL0L
aL0L
atp577
Rp578
ag283
(g284
(lp579
L0L
aL0L
aL0L
aL0L
aL0L
aL0L
aL0L
aL0L
aL0L
aL0L
aL0L
aL0L
aL0L
aL0L
aL0L
aL0L
aL0L
aL0L
aL0L
aL0L
aL0L
aL0L
aL0L
aL0L
aL0L
aL0L
aL0L
aL0L
aL0L
aL0L
aL0L
aL0L
aL0L
aL0L
aL0L
aL0L
aL0L
aL0L
aL0L
aL0L
aL0L
aL0L
aL0L
aL0L
aL0L
aL0L
aL0L
aL0L
aL0L
aL0L
aL0L
aL0L
aL0L
aL0L
aL0L
aL0L
aL0L
aL0L
aL0L
aL0L
aL0L
aL0L
aL0L
aL0L
aL0L
aL0L
aL0L
aL0L
aL0L
aL0L
aL0L
aL0L
aL0L
aL0L
aL0L
aL0L
aL0L
aL0L
aL0L
aL0L
aL0L
aL0L
aL0L
aL0L
aL0L
aL0L
aL0L
aL0L
aL0L
aL0L
aL0L
aL0L
aL0L
aL0L
aL0L
aL0L
aL0L
aL0L
aL0L
aL0L
aL0L
aL0L
aL0L
aL0L
aL0L
aL0L
aL0L
aL0L
aL0L
aL0L
aL0L
aL0L
aL0L
aL0L
aL0L
aL0L
aL0L
aL0L
aL0L
aL0L
aL0L
aL0L
aL0L
aL0L
aL0L
aL0L
aL0L
aL0L
atp580
Rp581
ag283
(g284
(lp582
L0L
aL0L
aL0L
aL0L
aL0L
aL0L
aL0L
aL0L
aL0L
aL0L
aL0L
aL0L
aL0L
aL0L
aL0L
aL0L
aL0L
aL0L
aL0L
aL0L
aL0L
aL0L
aL0L
aL0L
aL0L
aL0L
aL0L
aL0L
aL0L
aL0L
aL0L
aL0L
aL0L
aL0L
aL0L
aL0L
aL0L
aL0L
aL0L
aL0L
aL0L
aL0L
aL0L
aL0L
aL0L
aL0L
aL0L
aL0L
aL0L
aL0L
aL0L
aL0L
aL0L
aL0L
aL0L
aL0L
aL0L
aL0L
aL0L
aL0L
aL0L
aL0L
aL0L
aL0L
aL0L
aL0L
aL0L
aL0L
aL0L
aL0L
aL0L
aL0L
aL0L
aL0L
aL0L
aL0L
aL0L
aL0L
aL0L
aL0L
aL0L
aL0L
aL0L
aL0L
aL0L
aL0L
aL0L
aL0L
aL0L
aL0L
aL0L
aL0L
aL0L
aL0L
aL0L
aL0L
aL0L
aL0L
aL0L
aL0L
aL0L
aL0L
aL0L
aL0L
aL0L
aL0L
aL0L
aL0L
aL0L
aL0L
aL0L
aL0L
aL0L
aL0L
aL0L
aL0L
aL0L
aL0L
aL0L
aL0L
aL0L
aL0L
aL0L
aL0L
aL0L
aL0L
aL0L
aL0L
atp583
Rp584
ag283
(g284
(lp585
L0L
aL0L
aL0L
aL0L
aL0L
aL0L
aL0L
aL0L
aL0L
aL0L
aL0L
aL0L
aL0L
aL0L
aL0L
aL0L
aL0L
aL0L
aL0L
aL0L
aL0L
aL0L
aL0L
aL0L
aL0L
aL0L
aL0L
aL0L
aL0L
aL0L
aL0L
aL0L
aL0L
aL0L
aL0L
aL0L
aL0L
aL0L
aL0L
aL0L
aL0L
aL0L
aL0L
aL0L
aL0L
aL0L
aL0L
aL0L
aL0L
aL0L
aL0L
aL0L
aL0L
aL0L
aL0L
aL0L
aL0L
aL0L
aL0L
aL0L
aL0L
aL0L
aL0L
aL0L
aL0L
aL0L
aL0L
aL0L
aL0L
aL0L
aL0L
aL0L
aL0L
aL0L
aL0L
aL0L
aL0L
aL0L
aL0L
aL0L
aL0L
aL0L
aL0L
aL0L
aL0L
aL0L
aL0L
aL0L
aL0L
aL0L
aL0L
aL0L
aL0L
aL0L
aL0L
aL0L
aL0L
aL0L
aL0L
aL0L
aL0L
aL0L
aL0L
aL0L
aL0L
aL0L
aL0L
aL0L
aL0L
aL0L
aL0L
aL0L
aL0L
aL0L
aL0L
aL0L
aL0L
aL0L
aL0L
aL0L
aL0L
aL0L
aL0L
aL0L
aL0L
aL0L
aL0L
aL0L
atp586
Rp587
ag283
(g284
(lp588
L0L
aL0L
aL0L
aL0L
aL0L
aL0L
aL0L
aL0L
aL0L
aL0L
aL0L
aL0L
aL0L
aL0L
aL0L
aL0L
aL0L
aL0L
aL0L
aL0L
aL0L
aL0L
aL0L
aL0L
aL0L
aL0L
aL0L
aL0L
aL0L
aL0L
aL0L
aL0L
aL0L
aL0L
aL0L
aL0L
aL0L
aL0L
aL0L
aL0L
aL0L
aL0L
aL0L
aL0L
aL0L
aL0L
aL0L
aL0L
aL0L
aL0L
aL0L
aL0L
aL0L
aL0L
aL0L
aL0L
aL0L
aL0L
aL0L
aL0L
aL0L
aL0L
aL0L
aL0L
aL0L
aL0L
aL0L
aL0L
aL0L
aL0L
aL0L
aL0L
aL0L
aL0L
aL0L
aL0L
aL0L
aL0L
aL0L
aL0L
aL0L
aL0L
aL0L
aL0L
aL0L
aL0L
aL0L
aL0L
aL0L
aL0L
aL0L
aL0L
aL0L
aL0L
aL0L
aL0L
aL0L
aL0L
aL0L
aL0L
aL0L
aL0L
aL0L
aL0L
aL0L
aL0L
aL0L
aL0L
aL0L
aL0L
aL0L
aL0L
aL0L
aL0L
aL0L
aL0L
aL0L
aL0L
aL0L
aL0L
aL0L
aL0L
aL0L
aL0L
aL0L
aL0L
aL0L
aL0L
atp589
Rp590
ag283
(g284
(lp591
L0L
aL0L
aL0L
aL0L
aL0L
aL0L
aL0L
aL0L
aL0L
aL0L
aL0L
aL0L
aL0L
aL0L
aL0L
aL0L
aL0L
aL0L
aL0L
aL0L
aL0L
aL0L
aL0L
aL0L
aL0L
aL0L
aL0L
aL0L
aL0L
aL0L
aL0L
aL0L
aL0L
aL0L
aL0L
aL0L
aL0L
aL0L
aL0L
aL0L
aL0L
aL0L
aL0L
aL0L
aL0L
aL0L
aL0L
aL0L
aL0L
aL0L
aL0L
aL0L
aL0L
aL0L
aL0L
aL0L
aL0L
aL0L
aL0L
aL0L
aL0L
aL0L
aL0L
aL0L
aL0L
aL0L
aL0L
aL0L
aL0L
aL0L
aL0L
aL0L
aL0L
aL0L
aL0L
aL0L
aL0L
aL0L
aL0L
aL0L
aL0L
aL0L
aL0L
aL0L
aL0L
aL0L
aL0L
aL0L
aL0L
aL0L
aL0L
aL0L
aL0L
aL0L
aL0L
aL0L
aL0L
aL0L
aL0L
aL0L
aL0L
aL0L
aL0L
aL0L
aL0L
aL0L
aL0L
aL0L
aL0L
aL0L
aL0L
aL0L
aL0L
aL0L
aL0L
aL0L
aL0L
aL0L
aL0L
aL0L
aL0L
aL0L
aL0L
aL0L
aL0L
aL0L
aL0L
aL0L
atp592
Rp593
ag283
(g284
(lp594
L0L
aL0L
aL0L
aL0L
aL0L
aL0L
aL0L
aL0L
aL0L
aL0L
aL0L
aL0L
aL0L
aL0L
aL0L
aL0L
aL0L
aL0L
aL0L
aL0L
aL0L
aL0L
aL0L
aL0L
aL0L
aL0L
aL0L
aL0L
aL0L
aL0L
aL0L
aL0L
aL0L
aL0L
aL0L
aL0L
aL0L
aL0L
aL0L
aL0L
aL0L
aL0L
aL0L
aL0L
aL0L
aL0L
aL0L
aL0L
aL0L
aL0L
aL0L
aL0L
aL0L
aL0L
aL0L
aL0L
aL0L
aL0L
aL0L
aL0L
aL0L
aL0L
aL0L
aL0L
aL0L
aL0L
aL0L
aL0L
aL0L
aL0L
aL0L
aL0L
aL0L
aL0L
aL0L
aL0L
aL0L
aL0L
aL0L
aL0L
aL0L
aL0L
aL0L
aL0L
aL0L
aL0L
aL0L
aL0L
aL0L
aL0L
aL0L
aL0L
aL0L
aL0L
aL0L
aL0L
aL0L
aL0L
aL0L
aL0L
aL0L
aL0L
aL0L
aL0L
aL0L
aL0L
aL0L
aL0L
aL0L
aL0L
aL0L
aL0L
aL0L
aL0L
aL0L
aL0L
aL0L
aL0L
aL0L
aL0L
aL0L
aL0L
aL0L
aL0L
aL0L
aL0L
aL0L
aL0L
atp595
Rp596
ag283
(g284
(lp597
L0L
aL0L
aL0L
aL0L
aL0L
aL0L
aL0L
aL0L
aL0L
aL0L
aL0L
aL0L
aL0L
aL0L
aL0L
aL0L
aL0L
aL0L
aL0L
aL0L
aL0L
aL0L
aL0L
aL0L
aL0L
aL0L
aL0L
aL0L
aL0L
aL0L
aL0L
aL0L
aL0L
aL0L
aL0L
aL0L
aL0L
aL0L
aL0L
aL0L
aL0L
aL0L
aL0L
aL0L
aL0L
aL0L
aL0L
aL0L
aL0L
aL0L
aL0L
aL0L
aL0L
aL0L
aL0L
aL0L
aL0L
aL0L
aL0L
aL0L
aL0L
aL0L
aL0L
aL0L
aL0L
aL0L
aL0L
aL0L
aL0L
aL0L
aL0L
aL0L
aL0L
aL0L
aL0L
aL0L
aL0L
aL0L
aL0L
aL0L
aL0L
aL0L
aL0L
aL0L
aL0L
aL0L
aL0L
aL0L
aL0L
aL0L
aL0L
aL0L
aL0L
aL0L
aL0L
aL0L
aL0L
aL0L
aL0L
aL0L
aL0L
aL0L
aL0L
aL0L
aL0L
aL0L
aL0L
aL0L
aL0L
aL0L
aL0L
aL0L
aL0L
aL0L
aL0L
aL0L
aL0L
aL0L
aL0L
aL0L
aL0L
aL0L
aL0L
aL0L
aL0L
aL0L
aL0L
aL0L
atp598
Rp599
ag283
(g284
(lp600
L0L
aL0L
aL0L
aL0L
aL0L
aL0L
aL0L
aL0L
aL0L
aL0L
aL0L
aL0L
aL0L
aL0L
aL0L
aL0L
aL0L
aL0L
aL0L
aL0L
aL0L
aL0L
aL0L
aL0L
aL0L
aL0L
aL0L
aL0L
aL0L
aL0L
aL0L
aL0L
aL0L
aL0L
aL0L
aL0L
aL0L
aL0L
aL0L
aL0L
aL0L
aL0L
aL0L
aL0L
aL0L
aL0L
aL0L
aL0L
aL0L
aL0L
aL0L
aL0L
aL0L
aL0L
aL0L
aL0L
aL0L
aL0L
aL0L
aL0L
aL0L
aL0L
aL0L
aL0L
aL0L
aL0L
aL0L
aL0L
aL0L
aL0L
aL0L
aL0L
aL0L
aL0L
aL0L
aL0L
aL0L
aL0L
aL0L
aL0L
aL0L
aL0L
aL0L
aL0L
aL0L
aL0L
aL0L
aL0L
aL0L
aL0L
aL0L
aL0L
aL0L
aL0L
aL0L
aL0L
aL0L
aL0L
aL0L
aL0L
aL0L
aL0L
aL0L
aL0L
aL0L
aL0L
aL0L
aL0L
aL0L
aL0L
aL0L
aL0L
aL0L
aL0L
aL0L
aL0L
aL0L
aL0L
aL0L
aL0L
aL0L
aL0L
aL0L
aL0L
aL0L
aL0L
aL0L
aL0L
atp601
Rp602
ag283
(g284
(lp603
L0L
aL0L
aL0L
aL0L
aL0L
aL0L
aL0L
aL0L
aL0L
aL0L
aL0L
aL0L
aL0L
aL0L
aL0L
aL0L
aL0L
aL0L
aL0L
aL0L
aL0L
aL0L
aL0L
aL0L
aL0L
aL0L
aL0L
aL0L
aL0L
aL0L
aL0L
aL0L
aL0L
aL0L
aL0L
aL0L
aL0L
aL0L
aL0L
aL0L
aL0L
aL0L
aL0L
aL0L
aL0L
aL0L
aL0L
aL0L
aL0L
aL0L
aL0L
aL0L
aL0L
aL0L
aL0L
aL0L
aL0L
aL0L
aL0L
aL0L
aL0L
aL0L
aL0L
aL0L
aL0L
aL0L
aL0L
aL0L
aL0L
aL0L
aL0L
aL0L
aL0L
aL0L
aL0L
aL0L
aL0L
aL0L
aL0L
aL0L
aL0L
aL0L
aL0L
aL0L
aL0L
aL0L
aL0L
aL0L
aL0L
aL0L
aL0L
aL0L
aL0L
aL0L
aL0L
aL0L
aL0L
aL0L
aL0L
aL0L
aL0L
aL0L
aL0L
aL0L
aL0L
aL0L
aL0L
aL0L
aL0L
aL0L
aL0L
aL0L
aL0L
aL0L
aL0L
aL0L
aL0L
aL0L
aL0L
aL0L
aL0L
aL0L
aL0L
aL0L
aL0L
aL0L
aL0L
aL0L
atp604
Rp605
ag283
(g284
(lp606
L0L
aL0L
aL0L
aL0L
aL0L
aL0L
aL0L
aL0L
aL0L
aL0L
aL0L
aL0L
aL0L
aL0L
aL0L
aL0L
aL0L
aL0L
aL0L
aL0L
aL0L
aL0L
aL0L
aL0L
aL0L
aL0L
aL0L
aL0L
aL0L
aL0L
aL0L
aL0L
aL0L
aL0L
aL0L
aL0L
aL0L
aL0L
aL0L
aL0L
aL0L
aL0L
aL0L
aL0L
aL0L
aL0L
aL0L
aL0L
aL0L
aL0L
aL0L
aL0L
aL0L
aL0L
aL0L
aL0L
aL0L
aL0L
aL0L
aL0L
aL0L
aL0L
aL0L
aL0L
aL0L
aL0L
aL0L
aL0L
aL0L
aL0L
aL0L
aL0L
aL0L
aL0L
aL0L
aL0L
aL0L
aL0L
aL0L
aL0L
aL0L
aL0L
aL0L
aL0L
aL0L
aL0L
aL0L
aL0L
aL0L
aL0L
aL0L
aL0L
aL0L
aL0L
aL0L
aL0L
aL0L
aL0L
aL0L
aL0L
aL0L
aL0L
aL0L
aL0L
aL0L
aL0L
aL0L
aL0L
aL0L
aL0L
aL0L
aL0L
aL0L
aL0L
aL0L
aL0L
aL0L
aL0L
aL0L
aL0L
aL0L
aL0L
aL0L
aL0L
aL0L
aL0L
aL0L
aL0L
atp607
Rp608
ag283
(g284
(lp609
L0L
aL0L
aL0L
aL0L
aL0L
aL0L
aL0L
aL0L
aL0L
aL0L
aL0L
aL0L
aL0L
aL0L
aL0L
aL0L
aL0L
aL0L
aL0L
aL0L
aL0L
aL0L
aL0L
aL0L
aL0L
aL0L
aL0L
aL0L
aL0L
aL0L
aL0L
aL0L
aL0L
aL0L
aL0L
aL0L
aL0L
aL0L
aL0L
aL0L
aL0L
aL0L
aL0L
aL0L
aL0L
aL0L
aL0L
aL0L
aL0L
aL0L
aL0L
aL0L
aL0L
aL0L
aL0L
aL0L
aL0L
aL0L
aL0L
aL0L
aL0L
aL0L
aL0L
aL0L
aL0L
aL0L
aL0L
aL0L
aL0L
aL0L
aL0L
aL0L
aL0L
aL0L
aL0L
aL0L
aL0L
aL0L
aL0L
aL0L
aL0L
aL0L
aL0L
aL0L
aL0L
aL0L
aL0L
aL0L
aL0L
aL0L
aL0L
aL0L
aL0L
aL0L
aL0L
aL0L
aL0L
aL0L
aL0L
aL0L
aL0L
aL0L
aL0L
aL0L
aL0L
aL0L
aL0L
aL0L
aL0L
aL0L
aL0L
aL0L
aL0L
aL0L
aL0L
aL0L
aL0L
aL0L
aL0L
aL0L
aL0L
aL0L
aL0L
aL0L
aL0L
aL0L
aL0L
aL0L
atp610
Rp611
ag283
(g284
(lp612
L0L
aL0L
aL0L
aL0L
aL0L
aL0L
aL0L
aL0L
aL0L
aL0L
aL0L
aL0L
aL0L
aL0L
aL0L
aL0L
aL0L
aL0L
aL0L
aL0L
aL0L
aL0L
aL0L
aL0L
aL0L
aL0L
aL0L
aL0L
aL0L
aL0L
aL0L
aL0L
aL0L
aL0L
aL0L
aL0L
aL0L
aL0L
aL0L
aL0L
aL0L
aL0L
aL0L
aL0L
aL0L
aL0L
aL0L
aL0L
aL0L
aL0L
aL0L
aL0L
aL0L
aL0L
aL0L
aL0L
aL0L
aL0L
aL0L
aL0L
aL0L
aL0L
aL0L
aL0L
aL0L
aL0L
aL0L
aL0L
aL0L
aL0L
aL0L
aL0L
aL0L
aL0L
aL0L
aL0L
aL0L
aL0L
aL0L
aL0L
aL0L
aL0L
aL0L
aL0L
aL0L
aL0L
aL0L
aL0L
aL0L
aL0L
aL0L
aL0L
aL0L
aL0L
aL0L
aL0L
aL0L
aL0L
aL0L
aL0L
aL0L
aL0L
aL0L
aL0L
aL0L
aL0L
aL0L
aL0L
aL0L
aL0L
aL0L
aL0L
aL0L
aL0L
aL0L
aL0L
aL0L
aL0L
aL0L
aL0L
aL0L
aL0L
aL0L
aL0L
aL0L
aL0L
aL0L
aL0L
atp613
Rp614
ag283
(g284
(lp615
L0L
aL0L
aL0L
aL0L
aL0L
aL0L
aL0L
aL0L
aL0L
aL0L
aL0L
aL0L
aL0L
aL0L
aL0L
aL0L
aL0L
aL0L
aL0L
aL0L
aL0L
aL0L
aL0L
aL0L
aL0L
aL0L
aL0L
aL0L
aL0L
aL0L
aL0L
aL0L
aL0L
aL0L
aL0L
aL0L
aL0L
aL0L
aL0L
aL0L
aL0L
aL0L
aL0L
aL0L
aL0L
aL0L
aL0L
aL0L
aL0L
aL0L
aL0L
aL0L
aL0L
aL0L
aL0L
aL0L
aL0L
aL0L
aL0L
aL0L
aL0L
aL0L
aL0L
aL0L
aL0L
aL0L
aL0L
aL0L
aL0L
aL0L
aL0L
aL0L
aL0L
aL0L
aL0L
aL0L
aL0L
aL0L
aL0L
aL0L
aL0L
aL0L
aL0L
aL0L
aL0L
aL0L
aL0L
aL0L
aL0L
aL0L
aL0L
aL0L
aL0L
aL0L
aL0L
aL0L
aL0L
aL0L
aL0L
aL0L
aL0L
aL0L
aL0L
aL0L
aL0L
aL0L
aL0L
aL0L
aL0L
aL0L
aL0L
aL0L
aL0L
aL0L
aL0L
aL0L
aL0L
aL0L
aL0L
aL0L
aL0L
aL0L
aL0L
aL0L
aL0L
aL0L
aL0L
aL0L
atp616
Rp617
ag283
(g284
(lp618
L0L
aL0L
aL0L
aL0L
aL0L
aL0L
aL0L
aL0L
aL0L
aL0L
aL0L
aL0L
aL0L
aL0L
aL0L
aL0L
aL0L
aL0L
aL0L
aL0L
aL0L
aL0L
aL0L
aL0L
aL0L
aL0L
aL0L
aL0L
aL0L
aL0L
aL0L
aL0L
aL0L
aL0L
aL0L
aL0L
aL0L
aL0L
aL0L
aL0L
aL0L
aL0L
aL0L
aL0L
aL0L
aL0L
aL0L
aL0L
aL0L
aL0L
aL0L
aL0L
aL0L
aL0L
aL0L
aL0L
aL0L
aL0L
aL0L
aL0L
aL0L
aL0L
aL0L
aL0L
aL0L
aL0L
aL0L
aL0L
aL0L
aL0L
aL0L
aL0L
aL0L
aL0L
aL0L
aL0L
aL0L
aL0L
aL0L
aL0L
aL0L
aL0L
aL0L
aL0L
aL0L
aL0L
aL0L
aL0L
aL0L
aL0L
aL0L
aL0L
aL0L
aL0L
aL0L
aL0L
aL0L
aL0L
aL0L
aL0L
aL0L
aL0L
aL0L
aL0L
aL0L
aL0L
aL0L
aL0L
aL0L
aL0L
aL0L
aL0L
aL0L
aL0L
aL0L
aL0L
aL0L
aL0L
aL0L
aL0L
aL0L
aL0L
aL0L
aL0L
aL0L
aL0L
aL0L
aL0L
atp619
Rp620
ag283
(g284
(lp621
L0L
aL0L
aL0L
aL0L
aL0L
aL0L
aL0L
aL0L
aL0L
aL0L
aL0L
aL0L
aL0L
aL0L
aL0L
aL0L
aL0L
aL0L
aL0L
aL0L
aL0L
aL0L
aL0L
aL0L
aL0L
aL0L
aL0L
aL0L
aL0L
aL0L
aL0L
aL0L
aL0L
aL0L
aL0L
aL0L
aL0L
aL0L
aL0L
aL0L
aL0L
aL0L
aL0L
aL0L
aL0L
aL0L
aL0L
aL0L
aL0L
aL0L
aL0L
aL0L
aL0L
aL0L
aL0L
aL0L
aL0L
aL0L
aL0L
aL0L
aL0L
aL0L
aL0L
aL0L
aL0L
aL0L
aL0L
aL0L
aL0L
aL0L
aL0L
aL0L
aL0L
aL0L
aL0L
aL0L
aL0L
aL0L
aL0L
aL0L
aL0L
aL0L
aL0L
aL0L
aL0L
aL0L
aL0L
aL0L
aL0L
aL0L
aL0L
aL0L
aL0L
aL0L
aL0L
aL0L
aL0L
aL0L
aL0L
aL0L
aL0L
aL0L
aL0L
aL0L
aL0L
aL0L
aL0L
aL0L
aL0L
aL0L
aL0L
aL0L
aL0L
aL0L
aL0L
aL0L
aL0L
aL0L
aL0L
aL0L
aL0L
aL0L
aL0L
aL0L
aL0L
aL0L
aL0L
aL0L
atp622
Rp623
ag283
(g284
(lp624
L0L
aL0L
aL0L
aL0L
aL0L
aL0L
aL0L
aL0L
aL0L
aL0L
aL0L
aL0L
aL0L
aL0L
aL0L
aL0L
aL0L
aL0L
aL0L
aL0L
aL0L
aL0L
aL0L
aL0L
aL0L
aL0L
aL0L
aL0L
aL0L
aL0L
aL0L
aL0L
aL0L
aL0L
aL0L
aL0L
aL0L
aL0L
aL0L
aL0L
aL0L
aL0L
aL0L
aL0L
aL0L
aL0L
aL0L
aL0L
aL0L
aL0L
aL0L
aL0L
aL0L
aL0L
aL0L
aL0L
aL0L
aL0L
aL0L
aL0L
aL0L
aL0L
aL0L
aL0L
aL0L
aL0L
aL0L
aL0L
aL0L
aL0L
aL0L
aL0L
aL0L
aL0L
aL0L
aL0L
aL0L
aL0L
aL0L
aL0L
aL0L
aL0L
aL0L
aL0L
aL0L
aL0L
aL0L
aL0L
aL0L
aL0L
aL0L
aL0L
aL0L
aL0L
aL0L
aL0L
aL0L
aL0L
aL0L
aL0L
aL0L
aL0L
aL0L
aL0L
aL0L
aL0L
aL0L
aL0L
aL0L
aL0L
aL0L
aL0L
aL0L
aL0L
aL0L
aL0L
aL0L
aL0L
aL0L
aL0L
aL0L
aL0L
aL0L
aL0L
aL0L
aL0L
aL0L
aL0L
atp625
Rp626
ag283
(g284
(lp627
L0L
aL0L
aL0L
aL0L
aL0L
aL0L
aL0L
aL0L
aL0L
aL0L
aL0L
aL0L
aL0L
aL0L
aL0L
aL0L
aL0L
aL0L
aL0L
aL0L
aL0L
aL0L
aL0L
aL0L
aL0L
aL0L
aL0L
aL0L
aL0L
aL0L
aL0L
aL0L
aL0L
aL0L
aL0L
aL0L
aL0L
aL0L
aL0L
aL0L
aL0L
aL0L
aL0L
aL0L
aL0L
aL0L
aL0L
aL0L
aL0L
aL0L
aL0L
aL0L
aL0L
aL0L
aL0L
aL0L
aL0L
aL0L
aL0L
aL0L
aL0L
aL0L
aL0L
aL0L
aL0L
aL0L
aL0L
aL0L
aL0L
aL0L
aL0L
aL0L
aL0L
aL0L
aL0L
aL0L
aL0L
aL0L
aL0L
aL0L
aL0L
aL0L
aL0L
aL0L
aL0L
aL0L
aL0L
aL0L
aL0L
aL0L
aL0L
aL0L
aL0L
aL0L
aL0L
aL0L
aL0L
aL0L
aL0L
aL0L
aL0L
aL0L
aL0L
aL0L
aL0L
aL0L
aL0L
aL0L
aL0L
aL0L
aL0L
aL0L
aL0L
aL0L
aL0L
aL0L
aL0L
aL0L
aL0L
aL0L
aL0L
aL0L
aL0L
aL0L
aL0L
aL0L
aL0L
aL0L
atp628
Rp629
ag283
(g284
(lp630
L0L
aL0L
aL0L
aL0L
aL0L
aL0L
aL0L
aL0L
aL0L
aL0L
aL0L
aL0L
aL0L
aL0L
aL0L
aL0L
aL0L
aL0L
aL0L
aL0L
aL0L
aL0L
aL0L
aL0L
aL0L
aL0L
aL0L
aL0L
aL0L
aL0L
aL0L
aL0L
aL0L
aL0L
aL0L
aL0L
aL0L
aL0L
aL0L
aL0L
aL0L
aL0L
aL0L
aL0L
aL0L
aL0L
aL0L
aL0L
aL0L
aL0L
aL0L
aL0L
aL0L
aL0L
aL0L
aL0L
aL0L
aL0L
aL0L
aL0L
aL0L
aL0L
aL0L
aL0L
aL0L
aL0L
aL0L
aL0L
aL0L
aL0L
aL0L
aL0L
aL0L
aL0L
aL0L
aL0L
aL0L
aL0L
aL0L
aL0L
aL0L
aL0L
aL0L
aL0L
aL0L
aL0L
aL0L
aL0L
aL0L
aL0L
aL0L
aL0L
aL0L
aL0L
aL0L
aL0L
aL0L
aL0L
aL0L
aL0L
aL0L
aL0L
aL0L
aL0L
aL0L
aL0L
aL0L
aL0L
aL0L
aL0L
aL0L
aL0L
aL0L
aL0L
aL0L
aL0L
aL0L
aL0L
aL0L
aL0L
aL0L
aL0L
aL0L
aL0L
aL0L
aL0L
aL0L
aL0L
atp631
Rp632
ag283
(g284
(lp633
L0L
aL0L
aL0L
aL0L
aL0L
aL0L
aL0L
aL0L
aL0L
aL0L
aL0L
aL0L
aL0L
aL0L
aL0L
aL0L
aL0L
aL0L
aL0L
aL0L
aL0L
aL0L
aL0L
aL0L
aL0L
aL0L
aL0L
aL0L
aL0L
aL0L
aL0L
aL0L
aL0L
aL0L
aL0L
aL0L
aL0L
aL0L
aL0L
aL0L
aL0L
aL0L
aL0L
aL0L
aL0L
aL0L
aL0L
aL0L
aL0L
aL0L
aL0L
aL0L
aL0L
aL0L
aL0L
aL0L
aL0L
aL0L
aL0L
aL0L
aL0L
aL0L
aL0L
aL0L
aL0L
aL0L
aL0L
aL0L
aL0L
aL0L
aL0L
aL0L
aL0L
aL0L
aL0L
aL0L
aL0L
aL0L
aL0L
aL0L
aL0L
aL0L
aL0L
aL0L
aL0L
aL0L
aL0L
aL0L
aL0L
aL0L
aL0L
aL0L
aL0L
aL0L
aL0L
aL0L
aL0L
aL0L
aL0L
aL0L
aL0L
aL0L
aL0L
aL0L
aL0L
aL0L
aL0L
aL0L
aL0L
aL0L
aL0L
aL0L
aL0L
aL0L
aL0L
aL0L
aL0L
aL0L
aL0L
aL0L
aL0L
aL0L
aL0L
aL0L
aL0L
aL0L
aL0L
aL0L
atp634
Rp635
ag283
(g284
(lp636
L0L
aL0L
aL0L
aL0L
aL0L
aL0L
aL0L
aL0L
aL0L
aL0L
aL0L
aL0L
aL0L
aL0L
aL0L
aL0L
aL0L
aL0L
aL0L
aL0L
aL0L
aL0L
aL0L
aL0L
aL0L
aL0L
aL0L
aL0L
aL0L
aL0L
aL0L
aL0L
aL0L
aL0L
aL0L
aL0L
aL0L
aL0L
aL0L
aL0L
aL0L
aL0L
aL0L
aL0L
aL0L
aL0L
aL0L
aL0L
aL0L
aL0L
aL0L
aL0L
aL0L
aL0L
aL0L
aL0L
aL0L
aL0L
aL0L
aL0L
aL0L
aL0L
aL0L
aL0L
aL0L
aL0L
aL0L
aL0L
aL0L
aL0L
aL0L
aL0L
aL0L
aL0L
aL0L
aL0L
aL0L
aL0L
aL0L
aL0L
aL0L
aL0L
aL0L
aL0L
aL0L
aL0L
aL0L
aL0L
aL0L
aL0L
aL0L
aL0L
aL0L
aL0L
aL0L
aL0L
aL0L
aL0L
aL0L
aL0L
aL0L
aL0L
aL0L
aL0L
aL0L
aL0L
aL0L
aL0L
aL0L
aL0L
aL0L
aL0L
aL0L
aL0L
aL0L
aL0L
aL0L
aL0L
aL0L
aL0L
aL0L
aL0L
aL0L
aL0L
aL0L
aL0L
aL0L
aL0L
atp637
Rp638
ag283
(g284
(lp639
L0L
aL0L
aL0L
aL0L
aL0L
aL0L
aL0L
aL0L
aL0L
aL0L
aL0L
aL0L
aL0L
aL0L
aL0L
aL0L
aL0L
aL0L
aL0L
aL0L
aL0L
aL0L
aL0L
aL0L
aL0L
aL0L
aL0L
aL0L
aL0L
aL0L
aL0L
aL0L
aL0L
aL0L
aL0L
aL0L
aL0L
aL0L
aL0L
aL0L
aL0L
aL0L
aL0L
aL0L
aL0L
aL0L
aL0L
aL0L
aL0L
aL0L
aL0L
aL0L
aL0L
aL0L
aL0L
aL0L
aL0L
aL0L
aL0L
aL0L
aL0L
aL0L
aL0L
aL0L
aL0L
aL0L
aL0L
aL0L
aL0L
aL0L
aL0L
aL0L
aL0L
aL0L
aL0L
aL0L
aL0L
aL0L
aL0L
aL0L
aL0L
aL0L
aL0L
aL0L
aL0L
aL0L
aL0L
aL0L
aL0L
aL0L
aL0L
aL0L
aL0L
aL0L
aL0L
aL0L
aL0L
aL0L
aL0L
aL0L
aL0L
aL0L
aL0L
aL0L
aL0L
aL0L
aL0L
aL0L
aL0L
aL0L
aL0L
aL0L
aL0L
aL0L
aL0L
aL0L
aL0L
aL0L
aL0L
aL0L
aL0L
aL0L
aL0L
aL0L
aL0L
aL0L
aL0L
aL0L
atp640
Rp641
ag283
(g284
(lp642
L0L
aL0L
aL0L
aL0L
aL0L
aL0L
aL0L
aL0L
aL0L
aL0L
aL0L
aL0L
aL0L
aL0L
aL0L
aL0L
aL0L
aL0L
aL0L
aL0L
aL0L
aL0L
aL0L
aL0L
aL0L
aL0L
aL0L
aL0L
aL0L
aL0L
aL0L
aL0L
aL0L
aL0L
aL0L
aL0L
aL0L
aL0L
aL0L
aL0L
aL0L
aL0L
aL0L
aL0L
aL0L
aL0L
aL0L
aL0L
aL0L
aL0L
aL0L
aL0L
aL0L
aL0L
aL0L
aL0L
aL0L
aL0L
aL0L
aL0L
aL0L
aL0L
aL0L
aL0L
aL0L
aL0L
aL0L
aL0L
aL0L
aL0L
aL0L
aL0L
aL0L
aL0L
aL0L
aL0L
aL0L
aL0L
aL0L
aL0L
aL0L
aL0L
aL0L
aL0L
aL0L
aL0L
aL0L
aL0L
aL0L
aL0L
aL0L
aL0L
aL0L
aL0L
aL0L
aL0L
aL0L
aL0L
aL0L
aL0L
aL0L
aL0L
aL0L
aL0L
aL0L
aL0L
aL0L
aL0L
aL0L
aL0L
aL0L
aL0L
aL0L
aL0L
aL0L
aL0L
aL0L
aL0L
aL0L
aL0L
aL0L
aL0L
aL0L
aL0L
aL0L
aL0L
aL0L
aL0L
atp643
Rp644
ag283
(g284
(lp645
L0L
aL0L
aL0L
aL0L
aL0L
aL0L
aL0L
aL0L
aL0L
aL0L
aL0L
aL0L
aL0L
aL0L
aL0L
aL0L
aL0L
aL0L
aL0L
aL0L
aL0L
aL0L
aL0L
aL0L
aL0L
aL0L
aL0L
aL0L
aL0L
aL0L
aL0L
aL0L
aL0L
aL0L
aL0L
aL0L
aL0L
aL0L
aL0L
aL0L
aL0L
aL0L
aL0L
aL0L
aL0L
aL0L
aL0L
aL0L
aL0L
aL0L
aL0L
aL0L
aL0L
aL0L
aL0L
aL0L
aL0L
aL0L
aL0L
aL0L
aL0L
aL0L
aL0L
aL0L
aL0L
aL0L
aL0L
aL0L
aL0L
aL0L
aL0L
aL0L
aL0L
aL0L
aL0L
aL0L
aL0L
aL0L
aL0L
aL0L
aL0L
aL0L
aL0L
aL0L
aL0L
aL0L
aL0L
aL0L
aL0L
aL0L
aL0L
aL0L
aL0L
aL0L
aL0L
aL0L
aL0L
aL0L
aL0L
aL0L
aL0L
aL0L
aL0L
aL0L
aL0L
aL0L
aL0L
aL0L
aL0L
aL0L
aL0L
aL0L
aL0L
aL0L
aL0L
aL0L
aL0L
aL0L
aL0L
aL0L
aL0L
aL0L
aL0L
aL0L
aL0L
aL0L
aL0L
aL0L
atp646
Rp647
ag283
(g284
(lp648
L0L
aL0L
aL0L
aL0L
aL0L
aL0L
aL0L
aL0L
aL0L
aL0L
aL0L
aL0L
aL0L
aL0L
aL0L
aL0L
aL0L
aL0L
aL0L
aL0L
aL0L
aL0L
aL0L
aL0L
aL0L
aL0L
aL0L
aL0L
aL0L
aL0L
aL0L
aL0L
aL0L
aL0L
aL0L
aL0L
aL0L
aL0L
aL0L
aL0L
aL0L
aL0L
aL0L
aL0L
aL0L
aL0L
aL0L
aL0L
aL0L
aL0L
aL0L
aL0L
aL0L
aL0L
aL0L
aL0L
aL0L
aL0L
aL0L
aL0L
aL0L
aL0L
aL0L
aL0L
aL0L
aL0L
aL0L
aL0L
aL0L
aL0L
aL0L
aL0L
aL0L
aL0L
aL0L
aL0L
aL0L
aL0L
aL0L
aL0L
aL0L
aL0L
aL0L
aL0L
aL0L
aL0L
aL0L
aL0L
aL0L
aL0L
aL0L
aL0L
aL0L
aL0L
aL0L
aL0L
aL0L
aL0L
aL0L
aL0L
aL0L
aL0L
aL0L
aL0L
aL0L
aL0L
aL0L
aL0L
aL0L
aL0L
aL0L
aL0L
aL0L
aL0L
aL0L
aL0L
aL0L
aL0L
aL0L
aL0L
aL0L
aL0L
aL0L
aL0L
aL0L
aL0L
aL0L
aL0L
atp649
Rp650
ag283
(g284
(lp651
L0L
aL0L
aL0L
aL0L
aL0L
aL0L
aL0L
aL0L
aL0L
aL0L
aL0L
aL0L
aL0L
aL0L
aL0L
aL0L
aL0L
aL0L
aL0L
aL0L
aL0L
aL0L
aL0L
aL0L
aL0L
aL0L
aL0L
aL0L
aL0L
aL0L
aL0L
aL0L
aL0L
aL0L
aL0L
aL0L
aL0L
aL0L
aL0L
aL0L
aL0L
aL0L
aL0L
aL0L
aL0L
aL0L
aL0L
aL0L
aL0L
aL0L
aL0L
aL0L
aL0L
aL0L
aL0L
aL0L
aL0L
aL0L
aL0L
aL0L
aL0L
aL0L
aL0L
aL0L
aL0L
aL0L
aL0L
aL0L
aL0L
aL0L
aL0L
aL0L
aL0L
aL0L
aL0L
aL0L
aL0L
aL0L
aL0L
aL0L
aL0L
aL0L
aL0L
aL0L
aL0L
aL0L
aL0L
aL0L
aL0L
aL0L
aL0L
aL0L
aL0L
aL0L
aL0L
aL0L
aL0L
aL0L
aL0L
aL0L
aL0L
aL0L
aL0L
aL0L
aL0L
aL0L
aL0L
aL0L
aL0L
aL0L
aL0L
aL0L
aL0L
aL0L
aL0L
aL0L
aL0L
aL0L
aL0L
aL0L
aL0L
aL0L
aL0L
aL0L
aL0L
aL0L
aL0L
aL0L
atp652
Rp653
ag283
(g284
(lp654
L0L
aL0L
aL0L
aL0L
aL0L
aL0L
aL0L
aL0L
aL0L
aL0L
aL0L
aL0L
aL0L
aL0L
aL0L
aL0L
aL0L
aL0L
aL0L
aL0L
aL0L
aL0L
aL0L
aL0L
aL0L
aL0L
aL0L
aL0L
aL0L
aL0L
aL0L
aL0L
aL0L
aL0L
aL0L
aL0L
aL0L
aL0L
aL0L
aL0L
aL0L
aL0L
aL0L
aL0L
aL0L
aL0L
aL0L
aL0L
aL0L
aL0L
aL0L
aL0L
aL0L
aL0L
aL0L
aL0L
aL0L
aL0L
aL0L
aL0L
aL0L
aL0L
aL0L
aL0L
aL0L
aL0L
aL0L
aL0L
aL0L
aL0L
aL0L
aL0L
aL0L
aL0L
aL0L
aL0L
aL0L
aL0L
aL0L
aL0L
aL0L
aL0L
aL0L
aL0L
aL0L
aL0L
aL0L
aL0L
aL0L
aL0L
aL0L
aL0L
aL0L
aL0L
aL0L
aL0L
aL0L
aL0L
aL0L
aL0L
aL0L
aL0L
aL0L
aL0L
aL0L
aL0L
aL0L
aL0L
aL0L
aL0L
aL0L
aL0L
aL0L
aL0L
aL0L
aL0L
aL0L
aL0L
aL0L
aL0L
aL0L
aL0L
aL0L
aL0L
aL0L
aL0L
aL0L
aL0L
atp655
Rp656
ag283
(g284
(lp657
L0L
aL0L
aL0L
aL0L
aL0L
aL0L
aL0L
aL0L
aL0L
aL0L
aL0L
aL0L
aL0L
aL0L
aL0L
aL0L
aL0L
aL0L
aL0L
aL0L
aL0L
aL0L
aL0L
aL0L
aL0L
aL0L
aL0L
aL0L
aL0L
aL0L
aL0L
aL0L
aL0L
aL0L
aL0L
aL0L
aL0L
aL0L
aL0L
aL0L
aL0L
aL0L
aL0L
aL0L
aL0L
aL0L
aL0L
aL0L
aL0L
aL0L
aL0L
aL0L
aL0L
aL0L
aL0L
aL0L
aL0L
aL0L
aL0L
aL0L
aL0L
aL0L
aL0L
aL0L
aL0L
aL0L
aL0L
aL0L
aL0L
aL0L
aL0L
aL0L
aL0L
aL0L
aL0L
aL0L
aL0L
aL0L
aL0L
aL0L
aL0L
aL0L
aL0L
aL0L
aL0L
aL0L
aL0L
aL0L
aL0L
aL0L
aL0L
aL0L
aL0L
aL0L
aL0L
aL0L
aL0L
aL0L
aL0L
aL0L
aL0L
aL0L
aL0L
aL0L
aL0L
aL0L
aL0L
aL0L
aL0L
aL0L
aL0L
aL0L
aL0L
aL0L
aL0L
aL0L
aL0L
aL0L
aL0L
aL0L
aL0L
aL0L
aL0L
aL0L
aL0L
aL0L
aL0L
aL0L
atp658
Rp659
ag283
(g284
(lp660
L0L
aL0L
aL0L
aL0L
aL0L
aL0L
aL0L
aL0L
aL0L
aL0L
aL0L
aL0L
aL0L
aL0L
aL0L
aL0L
aL0L
aL0L
aL0L
aL0L
aL0L
aL0L
aL0L
aL0L
aL0L
aL0L
aL0L
aL0L
aL0L
aL0L
aL0L
aL0L
aL0L
aL0L
aL0L
aL0L
aL0L
aL0L
aL0L
aL0L
aL0L
aL0L
aL0L
aL0L
aL0L
aL0L
aL0L
aL0L
aL0L
aL0L
aL0L
aL0L
aL0L
aL0L
aL0L
aL0L
aL0L
aL0L
aL0L
aL0L
aL0L
aL0L
aL0L
aL0L
aL0L
aL0L
aL0L
aL0L
aL0L
aL0L
aL0L
aL0L
aL0L
aL0L
aL0L
aL0L
aL0L
aL0L
aL0L
aL0L
aL0L
aL0L
aL0L
aL0L
aL0L
aL0L
aL0L
aL0L
aL0L
aL0L
aL0L
aL0L
aL0L
aL0L
aL0L
aL0L
aL0L
aL0L
aL0L
aL0L
aL0L
aL0L
aL0L
aL0L
aL0L
aL0L
aL0L
aL0L
aL0L
aL0L
aL0L
aL0L
aL0L
aL0L
aL0L
aL0L
aL0L
aL0L
aL0L
aL0L
aL0L
aL0L
aL0L
aL0L
aL0L
aL0L
aL0L
aL0L
atp661
Rp662
ag283
(g284
(lp663
L0L
aL0L
aL0L
aL0L
aL0L
aL0L
aL0L
aL0L
aL0L
aL0L
aL0L
aL0L
aL0L
aL0L
aL0L
aL0L
aL0L
aL0L
aL0L
aL0L
aL0L
aL0L
aL0L
aL0L
aL0L
aL0L
aL0L
aL0L
aL0L
aL0L
aL0L
aL0L
aL0L
aL0L
aL0L
aL0L
aL0L
aL0L
aL0L
aL0L
aL0L
aL0L
aL0L
aL0L
aL0L
aL0L
aL0L
aL0L
aL0L
aL0L
aL0L
aL0L
aL0L
aL0L
aL0L
aL0L
aL0L
aL0L
aL0L
aL0L
aL0L
aL0L
aL0L
aL0L
aL0L
aL0L
aL0L
aL0L
aL0L
aL0L
aL0L
aL0L
aL0L
aL0L
aL0L
aL0L
aL0L
aL0L
aL0L
aL0L
aL0L
aL0L
aL0L
aL0L
aL0L
aL0L
aL0L
aL0L
aL0L
aL0L
aL0L
aL0L
aL0L
aL0L
aL0L
aL0L
aL0L
aL0L
aL0L
aL0L
aL0L
aL0L
aL0L
aL0L
aL0L
aL0L
aL0L
aL0L
aL0L
aL0L
aL0L
aL0L
aL0L
aL0L
aL0L
aL0L
aL0L
aL0L
aL0L
aL0L
aL0L
aL0L
aL0L
aL0L
aL0L
aL0L
aL0L
aL0L
atp664
Rp665
ag283
(g284
(lp666
L0L
aL0L
aL0L
aL0L
aL0L
aL0L
aL0L
aL0L
aL0L
aL0L
aL0L
aL0L
aL0L
aL0L
aL0L
aL0L
aL0L
aL0L
aL0L
aL0L
aL0L
aL0L
aL0L
aL0L
aL0L
aL0L
aL0L
aL0L
aL0L
aL0L
aL0L
aL0L
aL0L
aL0L
aL0L
aL0L
aL0L
aL0L
aL0L
aL0L
aL0L
aL0L
aL0L
aL0L
aL0L
aL0L
aL0L
aL0L
aL0L
aL0L
aL0L
aL0L
aL0L
aL0L
aL0L
aL0L
aL0L
aL0L
aL0L
aL0L
aL0L
aL0L
aL0L
aL0L
aL0L
aL0L
aL0L
aL0L
aL0L
aL0L
aL0L
aL0L
aL0L
aL0L
aL0L
aL0L
aL0L
aL0L
aL0L
aL0L
aL0L
aL0L
aL0L
aL0L
aL0L
aL0L
aL0L
aL0L
aL0L
aL0L
aL0L
aL0L
aL0L
aL0L
aL0L
aL0L
aL0L
aL0L
aL0L
aL0L
aL0L
aL0L
aL0L
aL0L
aL0L
aL0L
aL0L
aL0L
aL0L
aL0L
aL0L
aL0L
aL0L
aL0L
aL0L
aL0L
aL0L
aL0L
aL0L
aL0L
aL0L
aL0L
aL0L
aL0L
aL0L
aL0L
aL0L
aL0L
atp667
Rp668
ag283
(g284
(lp669
L0L
aL0L
aL0L
aL0L
aL0L
aL0L
aL0L
aL0L
aL0L
aL0L
aL0L
aL0L
aL0L
aL0L
aL0L
aL0L
aL0L
aL0L
aL0L
aL0L
aL0L
aL0L
aL0L
aL0L
aL0L
aL0L
aL0L
aL0L
aL0L
aL0L
aL0L
aL0L
aL0L
aL0L
aL0L
aL0L
aL0L
aL0L
aL0L
aL0L
aL0L
aL0L
aL0L
aL0L
aL0L
aL0L
aL0L
aL0L
aL0L
aL0L
aL0L
aL0L
aL0L
aL0L
aL0L
aL0L
aL0L
aL0L
aL0L
aL0L
aL0L
aL0L
aL0L
aL0L
aL0L
aL0L
aL0L
aL0L
aL0L
aL0L
aL0L
aL0L
aL0L
aL0L
aL0L
aL0L
aL0L
aL0L
aL0L
aL0L
aL0L
aL0L
aL0L
aL0L
aL0L
aL0L
aL0L
aL0L
aL0L
aL0L
aL0L
aL0L
aL0L
aL0L
aL0L
aL0L
aL0L
aL0L
aL0L
aL0L
aL0L
aL0L
aL0L
aL0L
aL0L
aL0L
aL0L
aL0L
aL0L
aL0L
aL0L
aL0L
aL0L
aL0L
aL0L
aL0L
aL0L
aL0L
aL0L
aL0L
aL0L
aL0L
aL0L
aL0L
aL0L
aL0L
aL0L
aL0L
atp670
Rp671
ag283
(g284
(lp672
L0L
aL0L
aL0L
aL0L
aL0L
aL0L
aL0L
aL0L
aL0L
aL0L
aL0L
aL0L
aL0L
aL0L
aL0L
aL0L
aL0L
aL0L
aL0L
aL0L
aL0L
aL0L
aL0L
aL0L
aL0L
aL0L
aL0L
aL0L
aL0L
aL0L
aL0L
aL0L
aL0L
aL0L
aL0L
aL0L
aL0L
aL0L
aL0L
aL0L
aL0L
aL0L
aL0L
aL0L
aL0L
aL0L
aL0L
aL0L
aL0L
aL0L
aL0L
aL0L
aL0L
aL0L
aL0L
aL0L
aL0L
aL0L
aL0L
aL0L
aL0L
aL0L
aL0L
aL0L
aL0L
aL0L
aL0L
aL0L
aL0L
aL0L
aL0L
aL0L
aL0L
aL0L
aL0L
aL0L
aL0L
aL0L
aL0L
aL0L
aL0L
aL0L
aL0L
aL0L
aL0L
aL0L
aL0L
aL0L
aL0L
aL0L
aL0L
aL0L
aL0L
aL0L
aL0L
aL0L
aL0L
aL0L
aL0L
aL0L
aL0L
aL0L
aL0L
aL0L
aL0L
aL0L
aL0L
aL0L
aL0L
aL0L
aL0L
aL0L
aL0L
aL0L
aL0L
aL0L
aL0L
aL0L
aL0L
aL0L
aL0L
aL0L
aL0L
aL0L
aL0L
aL0L
aL0L
aL0L
atp673
Rp674
ag283
(g284
(lp675
L0L
aL0L
aL0L
aL0L
aL0L
aL0L
aL0L
aL0L
aL0L
aL0L
aL0L
aL0L
aL0L
aL0L
aL0L
aL0L
aL0L
aL0L
aL0L
aL0L
aL0L
aL0L
aL0L
aL0L
aL0L
aL0L
aL0L
aL0L
aL0L
aL0L
aL0L
aL0L
aL0L
aL0L
aL0L
aL0L
aL0L
aL0L
aL0L
aL0L
aL0L
aL0L
aL0L
aL0L
aL0L
aL0L
aL0L
aL0L
aL0L
aL0L
aL0L
aL0L
aL0L
aL0L
aL0L
aL0L
aL0L
aL0L
aL0L
aL0L
aL0L
aL0L
aL0L
aL0L
aL0L
aL0L
aL0L
aL0L
aL0L
aL0L
aL0L
aL0L
aL0L
aL0L
aL0L
aL0L
aL0L
aL0L
aL0L
aL0L
aL0L
aL0L
aL0L
aL0L
aL0L
aL0L
aL0L
aL0L
aL0L
aL0L
aL0L
aL0L
aL0L
aL0L
aL0L
aL0L
aL0L
aL0L
aL0L
aL0L
aL0L
aL0L
aL0L
aL0L
aL0L
aL0L
aL0L
aL0L
aL0L
aL0L
aL0L
aL0L
aL0L
aL0L
aL0L
aL0L
aL0L
aL0L
aL0L
aL0L
aL0L
aL0L
aL0L
aL0L
aL0L
aL0L
aL0L
aL0L
atp676
Rp677
ag283
(g284
(lp678
L0L
aL0L
aL0L
aL0L
aL0L
aL0L
aL0L
aL0L
aL0L
aL0L
aL0L
aL0L
aL0L
aL0L
aL0L
aL0L
aL0L
aL0L
aL0L
aL0L
aL0L
aL0L
aL0L
aL0L
aL0L
aL0L
aL0L
aL0L
aL0L
aL0L
aL0L
aL0L
aL0L
aL0L
aL0L
aL0L
aL0L
aL0L
aL0L
aL0L
aL0L
aL0L
aL0L
aL0L
aL0L
aL0L
aL0L
aL0L
aL0L
aL0L
aL0L
aL0L
aL0L
aL0L
aL0L
aL0L
aL0L
aL0L
aL0L
aL0L
aL0L
aL0L
aL0L
aL0L
aL0L
aL0L
aL0L
aL0L
aL0L
aL0L
aL0L
aL0L
aL0L
aL0L
aL0L
aL0L
aL0L
aL0L
aL0L
aL0L
aL0L
aL0L
aL0L
aL0L
aL0L
aL0L
aL0L
aL0L
aL0L
aL0L
aL0L
aL0L
aL0L
aL0L
aL0L
aL0L
aL0L
aL0L
aL0L
aL0L
aL0L
aL0L
aL0L
aL0L
aL0L
aL0L
aL0L
aL0L
aL0L
aL0L
aL0L
aL0L
aL0L
aL0L
aL0L
aL0L
aL0L
aL0L
aL0L
aL0L
aL0L
aL0L
aL0L
aL0L
aL0L
aL0L
aL0L
aL0L
atp679
Rp680
ag283
(g284
(lp681
L0L
aL0L
aL0L
aL0L
aL0L
aL0L
aL0L
aL0L
aL0L
aL0L
aL0L
aL0L
aL0L
aL0L
aL0L
aL0L
aL0L
aL0L
aL0L
aL0L
aL0L
aL0L
aL0L
aL0L
aL0L
aL0L
aL0L
aL0L
aL0L
aL0L
aL0L
aL0L
aL0L
aL0L
aL0L
aL0L
aL0L
aL0L
aL0L
aL0L
aL0L
aL0L
aL0L
aL0L
aL0L
aL0L
aL0L
aL0L
aL0L
aL0L
aL0L
aL0L
aL0L
aL0L
aL0L
aL0L
aL0L
aL0L
aL0L
aL0L
aL0L
aL0L
aL0L
aL0L
aL0L
aL0L
aL0L
aL0L
aL0L
aL0L
aL0L
aL0L
aL0L
aL0L
aL0L
aL0L
aL0L
aL0L
aL0L
aL0L
aL0L
aL0L
aL0L
aL0L
aL0L
aL0L
aL0L
aL0L
aL0L
aL0L
aL0L
aL0L
aL0L
aL0L
aL0L
aL0L
aL0L
aL0L
aL0L
aL0L
aL0L
aL0L
aL0L
aL0L
aL0L
aL0L
aL0L
aL0L
aL0L
aL0L
aL0L
aL0L
aL0L
aL0L
aL0L
aL0L
aL0L
aL0L
aL0L
aL0L
aL0L
aL0L
aL0L
aL0L
aL0L
aL0L
aL0L
aL0L
atp682
Rp683
ag283
(g284
(lp684
L0L
aL0L
aL0L
aL0L
aL0L
aL0L
aL0L
aL0L
aL0L
aL0L
aL0L
aL0L
aL0L
aL0L
aL0L
aL0L
aL0L
aL0L
aL0L
aL0L
aL0L
aL0L
aL0L
aL0L
aL0L
aL0L
aL0L
aL0L
aL0L
aL0L
aL0L
aL0L
aL0L
aL0L
aL0L
aL0L
aL0L
aL0L
aL0L
aL0L
aL0L
aL0L
aL0L
aL0L
aL0L
aL0L
aL0L
aL0L
aL0L
aL0L
aL0L
aL0L
aL0L
aL0L
aL0L
aL0L
aL0L
aL0L
aL0L
aL0L
aL0L
aL0L
aL0L
aL0L
aL0L
aL0L
aL0L
aL0L
aL0L
aL0L
aL0L
aL0L
aL0L
aL0L
aL0L
aL0L
aL0L
aL0L
aL0L
aL0L
aL0L
aL0L
aL0L
aL0L
aL0L
aL0L
aL0L
aL0L
aL0L
aL0L
aL0L
aL0L
aL0L
aL0L
aL0L
aL0L
aL0L
aL0L
aL0L
aL0L
aL0L
aL0L
aL0L
aL0L
aL0L
aL0L
aL0L
aL0L
aL0L
aL0L
aL0L
aL0L
aL0L
aL0L
aL0L
aL0L
aL0L
aL0L
aL0L
aL0L
aL0L
aL0L
aL0L
aL0L
aL0L
aL0L
aL0L
aL0L
atp685
Rp686
ag283
(g284
(lp687
L0L
aL0L
aL0L
aL0L
aL0L
aL0L
aL0L
aL0L
aL0L
aL0L
aL0L
aL0L
aL0L
aL0L
aL0L
aL0L
aL0L
aL0L
aL0L
aL0L
aL0L
aL0L
aL0L
aL0L
aL0L
aL0L
aL0L
aL0L
aL0L
aL0L
aL0L
aL0L
aL0L
aL0L
aL0L
aL0L
aL0L
aL0L
aL0L
aL0L
aL0L
aL0L
aL0L
aL0L
aL0L
aL0L
aL0L
aL0L
aL0L
aL0L
aL0L
aL0L
aL0L
aL0L
aL0L
aL0L
aL0L
aL0L
aL0L
aL0L
aL0L
aL0L
aL0L
aL0L
aL0L
aL0L
aL0L
aL0L
aL0L
aL0L
aL0L
aL0L
aL0L
aL0L
aL0L
aL0L
aL0L
aL0L
aL0L
aL0L
aL0L
aL0L
aL0L
aL0L
aL0L
aL0L
aL0L
aL0L
aL0L
aL0L
aL0L
aL0L
aL0L
aL0L
aL0L
aL0L
aL0L
aL0L
aL0L
aL0L
aL0L
aL0L
aL0L
aL0L
aL0L
aL0L
aL0L
aL0L
aL0L
aL0L
aL0L
aL0L
aL0L
aL0L
aL0L
aL0L
aL0L
aL0L
aL0L
aL0L
aL0L
aL0L
aL0L
aL0L
aL0L
aL0L
aL0L
aL0L
atp688
Rp689
ag283
(g284
(lp690
L0L
aL0L
aL0L
aL0L
aL0L
aL0L
aL0L
aL0L
aL0L
aL0L
aL0L
aL0L
aL0L
aL0L
aL0L
aL0L
aL0L
aL0L
aL0L
aL0L
aL0L
aL0L
aL0L
aL0L
aL0L
aL0L
aL0L
aL0L
aL0L
aL0L
aL0L
aL0L
aL0L
aL0L
aL0L
aL0L
aL0L
aL0L
aL0L
aL0L
aL0L
aL0L
aL0L
aL0L
aL0L
aL0L
aL0L
aL0L
aL0L
aL0L
aL0L
aL0L
aL0L
aL0L
aL0L
aL0L
aL0L
aL0L
aL0L
aL0L
aL0L
aL0L
aL0L
aL0L
aL0L
aL0L
aL0L
aL0L
aL0L
aL0L
aL0L
aL0L
aL0L
aL0L
aL0L
aL0L
aL0L
aL0L
aL0L
aL0L
aL0L
aL0L
aL0L
aL0L
aL0L
aL0L
aL0L
aL0L
aL0L
aL0L
aL0L
aL0L
aL0L
aL0L
aL0L
aL0L
aL0L
aL0L
aL0L
aL0L
aL0L
aL0L
aL0L
aL0L
aL0L
aL0L
aL0L
aL0L
aL0L
aL0L
aL0L
aL0L
aL0L
aL0L
aL0L
aL0L
aL0L
aL0L
aL0L
aL0L
aL0L
aL0L
aL0L
aL0L
aL0L
aL0L
aL0L
aL0L
atp691
Rp692
ag283
(g284
(lp693
L0L
aL0L
aL0L
aL0L
aL0L
aL0L
aL0L
aL0L
aL0L
aL0L
aL0L
aL0L
aL0L
aL0L
aL0L
aL0L
aL0L
aL0L
aL0L
aL0L
aL0L
aL0L
aL0L
aL0L
aL0L
aL0L
aL0L
aL0L
aL0L
aL0L
aL0L
aL0L
aL0L
aL0L
aL0L
aL0L
aL0L
aL0L
aL0L
aL0L
aL0L
aL0L
aL0L
aL0L
aL0L
aL0L
aL0L
aL0L
aL0L
aL0L
aL0L
aL0L
aL0L
aL0L
aL0L
aL0L
aL0L
aL0L
aL0L
aL0L
aL0L
aL0L
aL0L
aL0L
aL0L
aL0L
aL0L
aL0L
aL0L
aL0L
aL0L
aL0L
aL0L
aL0L
aL0L
aL0L
aL0L
aL0L
aL0L
aL0L
aL0L
aL0L
aL0L
aL0L
aL0L
aL0L
aL0L
aL0L
aL0L
aL0L
aL0L
aL0L
aL0L
aL0L
aL0L
aL0L
aL0L
aL0L
aL0L
aL0L
aL0L
aL0L
aL0L
aL0L
aL0L
aL0L
aL0L
aL0L
aL0L
aL0L
aL0L
aL0L
aL0L
aL0L
aL0L
aL0L
aL0L
aL0L
aL0L
aL0L
aL0L
aL0L
aL0L
aL0L
aL0L
aL0L
aL0L
aL0L
atp694
Rp695
ag283
(g284
(lp696
L0L
aL0L
aL0L
aL0L
aL0L
aL0L
aL0L
aL0L
aL0L
aL0L
aL0L
aL0L
aL0L
aL0L
aL0L
aL0L
aL0L
aL0L
aL0L
aL0L
aL0L
aL0L
aL0L
aL0L
aL0L
aL0L
aL0L
aL0L
aL0L
aL0L
aL0L
aL0L
aL0L
aL0L
aL0L
aL0L
aL0L
aL0L
aL0L
aL0L
aL0L
aL0L
aL0L
aL0L
aL0L
aL0L
aL0L
aL0L
aL0L
aL0L
aL0L
aL0L
aL0L
aL0L
aL0L
aL0L
aL0L
aL0L
aL0L
aL0L
aL0L
aL0L
aL0L
aL0L
aL0L
aL0L
aL0L
aL0L
aL0L
aL0L
aL0L
aL0L
aL0L
aL0L
aL0L
aL0L
aL0L
aL0L
aL0L
aL0L
aL0L
aL0L
aL0L
aL0L
aL0L
aL0L
aL0L
aL0L
aL0L
aL0L
aL0L
aL0L
aL0L
aL0L
aL0L
aL0L
aL0L
aL0L
aL0L
aL0L
aL0L
aL0L
aL0L
aL0L
aL0L
aL0L
aL0L
aL0L
aL0L
aL0L
aL0L
aL0L
aL0L
aL0L
aL0L
aL0L
aL0L
aL0L
aL0L
aL0L
aL0L
aL0L
aL0L
aL0L
aL0L
aL0L
aL0L
aL0L
atp697
Rp698
ag283
(g284
(lp699
L0L
aL0L
aL0L
aL0L
aL0L
aL0L
aL0L
aL0L
aL0L
aL0L
aL0L
aL0L
aL0L
aL0L
aL0L
aL0L
aL0L
aL0L
aL0L
aL0L
aL0L
aL0L
aL0L
aL0L
aL0L
aL0L
aL0L
aL0L
aL0L
aL0L
aL0L
aL0L
aL0L
aL0L
aL0L
aL0L
aL0L
aL0L
aL0L
aL0L
aL0L
aL0L
aL0L
aL0L
aL0L
aL0L
aL0L
aL0L
aL0L
aL0L
aL0L
aL0L
aL0L
aL0L
aL0L
aL0L
aL0L
aL0L
aL0L
aL0L
aL0L
aL0L
aL0L
aL0L
aL0L
aL0L
aL0L
aL0L
aL0L
aL0L
aL0L
aL0L
aL0L
aL0L
aL0L
aL0L
aL0L
aL0L
aL0L
aL0L
aL0L
aL0L
aL0L
aL0L
aL0L
aL0L
aL0L
aL0L
aL0L
aL0L
aL0L
aL0L
aL0L
aL0L
aL0L
aL0L
aL0L
aL0L
aL0L
aL0L
aL0L
aL0L
aL0L
aL0L
aL0L
aL0L
aL0L
aL0L
aL0L
aL0L
aL0L
aL0L
aL0L
aL0L
aL0L
aL0L
aL0L
aL0L
aL0L
aL0L
aL0L
aL0L
aL0L
aL0L
aL0L
aL0L
aL0L
aL0L
atp700
Rp701
ag283
(g284
(lp702
L0L
aL0L
aL0L
aL0L
aL0L
aL0L
aL0L
aL0L
aL0L
aL0L
aL0L
aL0L
aL0L
aL0L
aL0L
aL0L
aL0L
aL0L
aL0L
aL0L
aL0L
aL0L
aL0L
aL0L
aL0L
aL0L
aL0L
aL0L
aL0L
aL0L
aL0L
aL0L
aL0L
aL0L
aL0L
aL0L
aL0L
aL0L
aL0L
aL0L
aL0L
aL0L
aL0L
aL0L
aL0L
aL0L
aL0L
aL0L
aL0L
aL0L
aL0L
aL0L
aL0L
aL0L
aL0L
aL0L
aL0L
aL0L
aL0L
aL0L
aL0L
aL0L
aL0L
aL0L
aL0L
aL0L
aL0L
aL0L
aL0L
aL0L
aL0L
aL0L
aL0L
aL0L
aL0L
aL0L
aL0L
aL0L
aL0L
aL0L
aL0L
aL0L
aL0L
aL0L
aL0L
aL0L
aL0L
aL0L
aL0L
aL0L
aL0L
aL0L
aL0L
aL0L
aL0L
aL0L
aL0L
aL0L
aL0L
aL0L
aL0L
aL0L
aL0L
aL0L
aL0L
aL0L
aL0L
aL0L
aL0L
aL0L
aL0L
aL0L
aL0L
aL0L
aL0L
aL0L
aL0L
aL0L
aL0L
aL0L
aL0L
aL0L
aL0L
aL0L
aL0L
aL0L
aL0L
aL0L
atp703
Rp704
asS'animati'
p705
(lp706
(dp707
S'image_source'
p708
NsS'image'
p709
NsS'classe'
p710
Vcatturabile
p711
sS'id'
p712
Vpippo
p713
sS'gid'
p714
V1060
p715
sS'posizione'
p716
(I1880
I582
tp717
sS'is_segui'
p718
I00
sS'type'
p719
S'animato'
p720
sS'properties'
p721
(dp722
S'points'
p723
(lp724
sVid
p725
g713
sVsottotipo
p726
g711
sVpunto_arrivo
p727
V58,25
p728
ssS'name'
p729
Vcamel
p730
sasS'cammina'
p731
I01
ssS'lista_seguito'
p732
(lp733
(dp734
S'properties'
p735
(dp736
S'points'
p737
(lp738
sVsottotipo
p739
S'mandria'
p740
sVpunto_arrivo
p741
V29,94
p742
sS'id'
p743
Vmucca0
p744
ssS'gid'
p745
I0
sS'posizione'
p746
(I997
I2363
tp747
sS'image_source'
p748
NsS'is_segui'
p749
I01
sS'image'
p750
NsS'classe'
p751
g740
sS'type'
p752
S'animato'
p753
sS'id'
p754
g744
sS'name'
p755
Vmucca
p756
sa(dp757
g735
(dp758
g737
(lp759
sVsottotipo
p760
g740
sVpunto_arrivo
p761
V20,96
p762
sg743
Vmucca10
p763
ssg745
I0
sg746
(I984
I2363
tp764
sg748
Nsg749
I01
sg750
Nsg751
g740
sg752
g753
sg754
g763
sg755
g756
sa(dp765
g735
(dp766
g737
(lp767
sg743
Vmucca7
p768
sVsottotipo
p769
g740
ssg745
I0
sg746
(I1013
I2362
tp770
sg748
Nsg749
I01
sg750
Nsg751
g740
sg752
g753
sg754
g768
sg755
g756
sas.