(lp0
carray
array
p1
(S'I'
p2
(lp3
L0L
aL0L
aL0L
aL0L
aL0L
aL0L
aL0L
aL0L
aL0L
aL0L
aL0L
aL0L
aL0L
aL0L
aL0L
aL0L
aL0L
aL0L
aL0L
aL0L
aL0L
aL0L
aL0L
aL0L
aL0L
aL0L
aL0L
aL0L
aL0L
aL0L
aL0L
aL0L
aL0L
aL0L
aL0L
aL0L
aL0L
aL0L
aL0L
aL0L
aL0L
aL0L
aL0L
aL0L
aL0L
aL0L
aL0L
aL0L
aL0L
aL0L
aL0L
aL0L
aL0L
aL0L
aL0L
aL0L
aL0L
aL0L
aL0L
aL0L
aL0L
aL0L
aL0L
aL0L
aL0L
aL0L
aL0L
aL0L
aL0L
aL0L
aL0L
aL0L
aL0L
aL0L
aL0L
aL0L
aL0L
aL0L
aL0L
aL0L
aL0L
aL0L
aL0L
aL0L
aL0L
aL0L
aL0L
aL0L
aL0L
aL0L
aL0L
aL0L
aL0L
aL0L
aL0L
atp4
Rp5
ag1
(g2
(lp6
L0L
aL0L
aL0L
aL0L
aL0L
aL0L
aL0L
aL0L
aL0L
aL0L
aL0L
aL0L
aL0L
aL0L
aL0L
aL0L
aL0L
aL0L
aL0L
aL0L
aL0L
aL0L
aL0L
aL0L
aL0L
aL0L
aL0L
aL0L
aL0L
aL0L
aL0L
aL0L
aL0L
aL0L
aL0L
aL0L
aL0L
aL0L
aL0L
aL0L
aL0L
aL0L
aL0L
aL0L
aL0L
aL0L
aL0L
aL0L
aL0L
aL0L
aL0L
aL0L
aL0L
aL0L
aL0L
aL0L
aL0L
aL0L
aL0L
aL0L
aL0L
aL0L
aL0L
aL0L
aL0L
aL0L
aL0L
aL0L
aL0L
aL0L
aL0L
aL0L
aL0L
aL0L
aL0L
aL0L
aL0L
aL0L
aL0L
aL0L
aL0L
aL0L
aL0L
aL0L
aL0L
aL0L
aL0L
aL0L
aL0L
aL0L
aL0L
aL0L
aL0L
aL0L
aL0L
atp7
Rp8
ag1
(g2
(lp9
L0L
aL0L
aL0L
aL0L
aL0L
aL0L
aL0L
aL0L
aL0L
aL0L
aL0L
aL0L
aL0L
aL0L
aL0L
aL0L
aL0L
aL0L
aL0L
aL0L
aL0L
aL0L
aL0L
aL0L
aL0L
aL0L
aL0L
aL0L
aL0L
aL0L
aL0L
aL0L
aL0L
aL0L
aL0L
aL0L
aL0L
aL0L
aL0L
aL0L
aL0L
aL0L
aL0L
aL0L
aL0L
aL0L
aL0L
aL0L
aL0L
aL0L
aL0L
aL0L
aL0L
aL0L
aL0L
aL0L
aL0L
aL0L
aL0L
aL0L
aL0L
aL0L
aL0L
aL0L
aL0L
aL0L
aL0L
aL0L
aL0L
aL0L
aL0L
aL0L
aL0L
aL0L
aL0L
aL0L
aL0L
aL0L
aL0L
aL0L
aL0L
aL0L
aL0L
aL0L
aL0L
aL0L
aL0L
aL0L
aL0L
aL0L
aL0L
aL0L
aL0L
aL0L
aL0L
atp10
Rp11
ag1
(g2
(lp12
L0L
aL0L
aL0L
aL0L
aL0L
aL0L
aL0L
aL0L
aL0L
aL0L
aL0L
aL0L
aL579L
aL0L
aL0L
aL0L
aL0L
aL0L
aL0L
aL0L
aL0L
aL0L
aL0L
aL0L
aL0L
aL0L
aL0L
aL0L
aL0L
aL0L
aL0L
aL0L
aL0L
aL0L
aL0L
aL0L
aL0L
aL0L
aL0L
aL0L
aL0L
aL0L
aL0L
aL0L
aL0L
aL0L
aL0L
aL0L
aL0L
aL0L
aL0L
aL0L
aL0L
aL0L
aL0L
aL0L
aL0L
aL0L
aL0L
aL0L
aL0L
aL0L
aL0L
aL0L
aL0L
aL0L
aL0L
aL0L
aL0L
aL0L
aL0L
aL0L
aL0L
aL0L
aL0L
aL0L
aL0L
aL0L
aL0L
aL0L
aL0L
aL0L
aL0L
aL0L
aL0L
aL0L
aL0L
aL0L
aL0L
aL0L
aL0L
aL0L
aL0L
aL0L
aL0L
atp13
Rp14
ag1
(g2
(lp15
L0L
aL0L
aL0L
aL0L
aL0L
aL0L
aL0L
aL0L
aL0L
aL0L
aL0L
aL0L
aL0L
aL0L
aL0L
aL0L
aL0L
aL0L
aL0L
aL0L
aL0L
aL0L
aL0L
aL0L
aL0L
aL0L
aL0L
aL0L
aL0L
aL0L
aL0L
aL0L
aL0L
aL0L
aL0L
aL0L
aL0L
aL0L
aL0L
aL0L
aL0L
aL0L
aL0L
aL0L
aL0L
aL0L
aL0L
aL0L
aL0L
aL0L
aL0L
aL0L
aL0L
aL0L
aL0L
aL0L
aL0L
aL0L
aL0L
aL0L
aL0L
aL0L
aL0L
aL0L
aL0L
aL0L
aL0L
aL0L
aL0L
aL0L
aL0L
aL0L
aL0L
aL0L
aL0L
aL0L
aL0L
aL0L
aL0L
aL0L
aL0L
aL0L
aL0L
aL0L
aL0L
aL0L
aL0L
aL0L
aL0L
aL0L
aL0L
aL0L
aL0L
aL0L
aL0L
atp16
Rp17
ag1
(g2
(lp18
L0L
aL0L
aL0L
aL0L
aL0L
aL0L
aL0L
aL0L
aL0L
aL0L
aL0L
aL0L
aL0L
aL0L
aL0L
aL0L
aL0L
aL0L
aL0L
aL0L
aL0L
aL0L
aL0L
aL0L
aL0L
aL0L
aL0L
aL0L
aL0L
aL0L
aL0L
aL0L
aL0L
aL0L
aL0L
aL0L
aL0L
aL0L
aL0L
aL0L
aL0L
aL0L
aL0L
aL0L
aL0L
aL0L
aL0L
aL0L
aL0L
aL0L
aL0L
aL0L
aL0L
aL0L
aL0L
aL0L
aL0L
aL0L
aL0L
aL0L
aL0L
aL0L
aL0L
aL0L
aL0L
aL0L
aL0L
aL0L
aL0L
aL0L
aL0L
aL0L
aL0L
aL0L
aL0L
aL0L
aL0L
aL0L
aL0L
aL0L
aL0L
aL0L
aL0L
aL0L
aL0L
aL0L
aL0L
aL0L
aL0L
aL0L
aL0L
aL0L
aL0L
aL0L
aL0L
atp19
Rp20
ag1
(g2
(lp21
L0L
aL0L
aL0L
aL0L
aL0L
aL0L
aL0L
aL0L
aL0L
aL0L
aL0L
aL0L
aL0L
aL0L
aL0L
aL0L
aL0L
aL0L
aL0L
aL0L
aL0L
aL0L
aL0L
aL0L
aL0L
aL0L
aL0L
aL0L
aL0L
aL0L
aL0L
aL0L
aL0L
aL0L
aL0L
aL0L
aL0L
aL0L
aL0L
aL0L
aL0L
aL0L
aL0L
aL0L
aL0L
aL0L
aL0L
aL0L
aL0L
aL0L
aL0L
aL0L
aL0L
aL0L
aL0L
aL0L
aL0L
aL0L
aL0L
aL0L
aL0L
aL0L
aL0L
aL0L
aL0L
aL0L
aL0L
aL0L
aL0L
aL0L
aL582L
aL0L
aL0L
aL0L
aL0L
aL0L
aL0L
aL0L
aL0L
aL0L
aL0L
aL0L
aL0L
aL0L
aL0L
aL0L
aL0L
aL0L
aL0L
aL0L
aL0L
aL0L
aL0L
aL0L
aL0L
atp22
Rp23
ag1
(g2
(lp24
L0L
aL0L
aL0L
aL0L
aL0L
aL0L
aL0L
aL580L
aL0L
aL0L
aL0L
aL0L
aL0L
aL0L
aL0L
aL0L
aL0L
aL0L
aL0L
aL0L
aL0L
aL0L
aL0L
aL0L
aL0L
aL0L
aL0L
aL0L
aL0L
aL0L
aL0L
aL0L
aL0L
aL0L
aL0L
aL0L
aL0L
aL0L
aL0L
aL0L
aL0L
aL0L
aL0L
aL0L
aL0L
aL0L
aL0L
aL0L
aL0L
aL0L
aL0L
aL0L
aL0L
aL0L
aL0L
aL0L
aL0L
aL0L
aL0L
aL0L
aL0L
aL0L
aL0L
aL0L
aL0L
aL0L
aL0L
aL0L
aL0L
aL0L
aL584L
aL581L
aL0L
aL0L
aL0L
aL0L
aL0L
aL0L
aL0L
aL0L
aL0L
aL0L
aL0L
aL0L
aL0L
aL0L
aL0L
aL0L
aL0L
aL0L
aL0L
aL0L
aL0L
aL0L
aL0L
atp25
Rp26
ag1
(g2
(lp27
L0L
aL0L
aL0L
aL0L
aL0L
aL0L
aL0L
aL0L
aL0L
aL0L
aL0L
aL0L
aL0L
aL0L
aL0L
aL0L
aL0L
aL0L
aL0L
aL0L
aL0L
aL0L
aL0L
aL0L
aL0L
aL0L
aL0L
aL0L
aL0L
aL0L
aL0L
aL0L
aL0L
aL0L
aL0L
aL0L
aL0L
aL0L
aL0L
aL0L
aL0L
aL0L
aL0L
aL0L
aL0L
aL0L
aL0L
aL0L
aL0L
aL0L
aL0L
aL0L
aL0L
aL0L
aL0L
aL0L
aL0L
aL0L
aL0L
aL0L
aL0L
aL0L
aL0L
aL0L
aL0L
aL0L
aL0L
aL0L
aL0L
aL0L
aL0L
aL0L
aL0L
aL0L
aL0L
aL0L
aL0L
aL0L
aL0L
aL0L
aL0L
aL0L
aL0L
aL0L
aL0L
aL0L
aL0L
aL0L
aL0L
aL0L
aL0L
aL0L
aL0L
aL0L
aL0L
atp28
Rp29
ag1
(g2
(lp30
L0L
aL0L
aL0L
aL0L
aL0L
aL0L
aL0L
aL581L
aL0L
aL0L
aL0L
aL0L
aL0L
aL0L
aL0L
aL0L
aL0L
aL0L
aL0L
aL0L
aL0L
aL0L
aL0L
aL0L
aL0L
aL0L
aL0L
aL0L
aL0L
aL0L
aL0L
aL0L
aL0L
aL0L
aL0L
aL0L
aL0L
aL0L
aL0L
aL0L
aL0L
aL0L
aL0L
aL0L
aL0L
aL0L
aL0L
aL0L
aL0L
aL0L
aL0L
aL0L
aL0L
aL0L
aL0L
aL0L
aL0L
aL0L
aL0L
aL0L
aL0L
aL0L
aL0L
aL0L
aL0L
aL0L
aL0L
aL0L
aL0L
aL0L
aL0L
aL0L
aL0L
aL0L
aL0L
aL0L
aL0L
aL0L
aL0L
aL0L
aL0L
aL0L
aL0L
aL0L
aL0L
aL0L
aL0L
aL0L
aL0L
aL0L
aL0L
aL0L
aL0L
aL0L
aL0L
atp31
Rp32
ag1
(g2
(lp33
L0L
aL0L
aL0L
aL0L
aL0L
aL0L
aL0L
aL0L
aL0L
aL0L
aL0L
aL0L
aL0L
aL0L
aL0L
aL0L
aL0L
aL0L
aL0L
aL0L
aL0L
aL0L
aL0L
aL0L
aL0L
aL0L
aL0L
aL0L
aL0L
aL0L
aL0L
aL0L
aL0L
aL0L
aL0L
aL0L
aL0L
aL0L
aL0L
aL0L
aL0L
aL0L
aL0L
aL0L
aL0L
aL0L
aL0L
aL0L
aL0L
aL0L
aL0L
aL0L
aL0L
aL0L
aL0L
aL0L
aL0L
aL0L
aL0L
aL0L
aL0L
aL0L
aL0L
aL0L
aL0L
aL0L
aL0L
aL0L
aL0L
aL0L
aL0L
aL0L
aL0L
aL0L
aL0L
aL0L
aL0L
aL0L
aL0L
aL0L
aL0L
aL0L
aL0L
aL0L
aL0L
aL0L
aL0L
aL0L
aL0L
aL0L
aL0L
aL0L
aL0L
aL0L
aL0L
atp34
Rp35
ag1
(g2
(lp36
L0L
aL0L
aL0L
aL0L
aL0L
aL0L
aL0L
aL582L
aL0L
aL0L
aL0L
aL0L
aL0L
aL0L
aL0L
aL0L
aL0L
aL0L
aL0L
aL0L
aL0L
aL0L
aL0L
aL0L
aL0L
aL0L
aL0L
aL0L
aL0L
aL0L
aL0L
aL0L
aL0L
aL0L
aL0L
aL0L
aL0L
aL0L
aL0L
aL0L
aL0L
aL0L
aL0L
aL0L
aL0L
aL0L
aL0L
aL0L
aL0L
aL0L
aL0L
aL0L
aL0L
aL0L
aL0L
aL0L
aL0L
aL0L
aL0L
aL0L
aL0L
aL0L
aL0L
aL0L
aL0L
aL0L
aL0L
aL0L
aL0L
aL0L
aL0L
aL0L
aL0L
aL0L
aL0L
aL0L
aL0L
aL0L
aL0L
aL0L
aL0L
aL0L
aL0L
aL0L
aL0L
aL0L
aL0L
aL0L
aL0L
aL0L
aL0L
aL0L
aL0L
aL0L
aL0L
atp37
Rp38
ag1
(g2
(lp39
L0L
aL0L
aL0L
aL0L
aL0L
aL0L
aL0L
aL584L
aL0L
aL0L
aL0L
aL0L
aL0L
aL0L
aL0L
aL0L
aL0L
aL0L
aL0L
aL0L
aL0L
aL0L
aL0L
aL0L
aL0L
aL0L
aL0L
aL0L
aL0L
aL0L
aL0L
aL0L
aL0L
aL0L
aL0L
aL0L
aL0L
aL0L
aL0L
aL0L
aL0L
aL0L
aL0L
aL0L
aL0L
aL0L
aL0L
aL0L
aL0L
aL0L
aL0L
aL0L
aL0L
aL0L
aL0L
aL0L
aL0L
aL0L
aL0L
aL0L
aL0L
aL0L
aL0L
aL0L
aL0L
aL0L
aL0L
aL0L
aL0L
aL583L
aL0L
aL0L
aL0L
aL0L
aL0L
aL0L
aL0L
aL0L
aL0L
aL0L
aL0L
aL0L
aL0L
aL0L
aL0L
aL0L
aL0L
aL0L
aL0L
aL0L
aL0L
aL0L
aL0L
aL0L
aL0L
atp40
Rp41
ag1
(g2
(lp42
L0L
aL0L
aL0L
aL0L
aL0L
aL0L
aL0L
aL0L
aL0L
aL0L
aL0L
aL0L
aL0L
aL0L
aL0L
aL0L
aL0L
aL0L
aL0L
aL0L
aL0L
aL0L
aL0L
aL0L
aL0L
aL0L
aL0L
aL0L
aL0L
aL0L
aL0L
aL0L
aL0L
aL0L
aL0L
aL0L
aL0L
aL0L
aL0L
aL0L
aL0L
aL0L
aL0L
aL0L
aL0L
aL0L
aL0L
aL0L
aL0L
aL0L
aL0L
aL0L
aL0L
aL0L
aL0L
aL0L
aL0L
aL0L
aL0L
aL0L
aL0L
aL0L
aL0L
aL0L
aL0L
aL0L
aL0L
aL0L
aL0L
aL580L
aL0L
aL0L
aL0L
aL0L
aL0L
aL0L
aL0L
aL0L
aL0L
aL0L
aL0L
aL0L
aL0L
aL0L
aL0L
aL0L
aL0L
aL0L
aL0L
aL0L
aL0L
aL0L
aL0L
aL0L
aL0L
atp43
Rp44
ag1
(g2
(lp45
L0L
aL0L
aL0L
aL0L
aL0L
aL0L
aL0L
aL0L
aL0L
aL0L
aL0L
aL0L
aL0L
aL0L
aL0L
aL0L
aL0L
aL0L
aL0L
aL0L
aL0L
aL0L
aL0L
aL0L
aL0L
aL0L
aL0L
aL0L
aL0L
aL0L
aL0L
aL0L
aL0L
aL0L
aL0L
aL0L
aL0L
aL0L
aL0L
aL0L
aL0L
aL0L
aL0L
aL0L
aL0L
aL0L
aL0L
aL0L
aL0L
aL0L
aL0L
aL0L
aL0L
aL0L
aL0L
aL0L
aL0L
aL0L
aL0L
aL0L
aL0L
aL0L
aL0L
aL0L
aL0L
aL0L
aL0L
aL0L
aL0L
aL0L
aL0L
aL0L
aL0L
aL0L
aL0L
aL0L
aL0L
aL0L
aL0L
aL0L
aL0L
aL0L
aL0L
aL0L
aL0L
aL0L
aL0L
aL0L
aL0L
aL0L
aL0L
aL0L
aL0L
aL0L
aL0L
atp46
Rp47
ag1
(g2
(lp48
L0L
aL0L
aL0L
aL0L
aL0L
aL0L
aL0L
aL0L
aL0L
aL0L
aL0L
aL0L
aL0L
aL0L
aL0L
aL0L
aL0L
aL0L
aL0L
aL0L
aL0L
aL0L
aL0L
aL0L
aL0L
aL0L
aL0L
aL0L
aL0L
aL0L
aL0L
aL0L
aL0L
aL0L
aL0L
aL0L
aL0L
aL0L
aL0L
aL0L
aL0L
aL0L
aL0L
aL0L
aL0L
aL0L
aL0L
aL0L
aL0L
aL0L
aL0L
aL0L
aL0L
aL0L
aL0L
aL0L
aL0L
aL0L
aL0L
aL0L
aL0L
aL0L
aL0L
aL0L
aL0L
aL0L
aL0L
aL0L
aL0L
aL0L
aL0L
aL0L
aL0L
aL0L
aL0L
aL0L
aL0L
aL0L
aL0L
aL0L
aL0L
aL0L
aL0L
aL0L
aL0L
aL0L
aL0L
aL0L
aL0L
aL0L
aL0L
aL0L
aL0L
aL0L
aL0L
atp49
Rp50
ag1
(g2
(lp51
L0L
aL0L
aL0L
aL0L
aL0L
aL0L
aL0L
aL0L
aL0L
aL0L
aL0L
aL0L
aL0L
aL0L
aL0L
aL0L
aL0L
aL0L
aL0L
aL0L
aL0L
aL0L
aL0L
aL0L
aL0L
aL0L
aL0L
aL0L
aL0L
aL0L
aL0L
aL0L
aL0L
aL0L
aL0L
aL0L
aL0L
aL0L
aL0L
aL0L
aL0L
aL0L
aL0L
aL0L
aL0L
aL0L
aL0L
aL0L
aL0L
aL0L
aL0L
aL0L
aL0L
aL0L
aL0L
aL0L
aL0L
aL0L
aL0L
aL0L
aL0L
aL0L
aL0L
aL0L
aL0L
aL0L
aL0L
aL0L
aL0L
aL0L
aL0L
aL0L
aL0L
aL0L
aL0L
aL0L
aL0L
aL0L
aL0L
aL0L
aL0L
aL0L
aL0L
aL0L
aL0L
aL0L
aL0L
aL0L
aL0L
aL0L
aL0L
aL0L
aL0L
aL0L
aL0L
atp52
Rp53
ag1
(g2
(lp54
L0L
aL0L
aL0L
aL0L
aL0L
aL0L
aL0L
aL0L
aL0L
aL0L
aL0L
aL0L
aL0L
aL0L
aL0L
aL0L
aL0L
aL0L
aL0L
aL0L
aL0L
aL0L
aL0L
aL0L
aL0L
aL0L
aL0L
aL0L
aL0L
aL0L
aL0L
aL0L
aL0L
aL0L
aL0L
aL0L
aL0L
aL0L
aL0L
aL0L
aL0L
aL0L
aL0L
aL0L
aL0L
aL0L
aL0L
aL0L
aL0L
aL0L
aL0L
aL0L
aL0L
aL0L
aL0L
aL0L
aL0L
aL0L
aL0L
aL0L
aL0L
aL0L
aL0L
aL0L
aL0L
aL0L
aL0L
aL0L
aL0L
aL0L
aL0L
aL0L
aL0L
aL0L
aL0L
aL0L
aL0L
aL0L
aL0L
aL0L
aL0L
aL0L
aL0L
aL0L
aL0L
aL0L
aL0L
aL0L
aL0L
aL0L
aL0L
aL0L
aL0L
aL0L
aL0L
atp55
Rp56
ag1
(g2
(lp57
L0L
aL0L
aL0L
aL0L
aL0L
aL0L
aL0L
aL0L
aL0L
aL0L
aL0L
aL0L
aL0L
aL0L
aL0L
aL0L
aL0L
aL0L
aL0L
aL0L
aL0L
aL0L
aL0L
aL0L
aL0L
aL0L
aL0L
aL0L
aL0L
aL0L
aL0L
aL0L
aL0L
aL0L
aL0L
aL0L
aL0L
aL0L
aL0L
aL0L
aL0L
aL0L
aL0L
aL0L
aL0L
aL0L
aL0L
aL0L
aL0L
aL0L
aL0L
aL0L
aL0L
aL0L
aL0L
aL0L
aL0L
aL0L
aL0L
aL0L
aL0L
aL0L
aL0L
aL0L
aL0L
aL0L
aL0L
aL0L
aL0L
aL0L
aL0L
aL0L
aL0L
aL0L
aL0L
aL0L
aL0L
aL0L
aL0L
aL0L
aL0L
aL0L
aL0L
aL0L
aL0L
aL0L
aL0L
aL0L
aL0L
aL0L
aL0L
aL0L
aL0L
aL0L
aL0L
atp58
Rp59
ag1
(g2
(lp60
L0L
aL0L
aL0L
aL0L
aL0L
aL0L
aL0L
aL0L
aL0L
aL0L
aL0L
aL0L
aL0L
aL0L
aL0L
aL0L
aL0L
aL0L
aL0L
aL0L
aL0L
aL0L
aL0L
aL0L
aL0L
aL0L
aL0L
aL0L
aL0L
aL0L
aL0L
aL0L
aL0L
aL0L
aL0L
aL0L
aL0L
aL0L
aL0L
aL0L
aL0L
aL0L
aL0L
aL0L
aL0L
aL0L
aL0L
aL0L
aL0L
aL0L
aL0L
aL0L
aL0L
aL0L
aL0L
aL0L
aL0L
aL0L
aL0L
aL0L
aL0L
aL0L
aL0L
aL0L
aL0L
aL0L
aL0L
aL0L
aL0L
aL0L
aL0L
aL0L
aL0L
aL0L
aL0L
aL0L
aL0L
aL0L
aL0L
aL0L
aL0L
aL0L
aL0L
aL0L
aL0L
aL0L
aL0L
aL0L
aL0L
aL0L
aL0L
aL0L
aL0L
aL0L
aL0L
atp61
Rp62
ag1
(g2
(lp63
L0L
aL0L
aL0L
aL0L
aL0L
aL0L
aL0L
aL0L
aL0L
aL0L
aL0L
aL0L
aL0L
aL0L
aL0L
aL0L
aL0L
aL0L
aL0L
aL0L
aL0L
aL0L
aL0L
aL0L
aL0L
aL0L
aL0L
aL0L
aL0L
aL0L
aL0L
aL0L
aL0L
aL0L
aL0L
aL0L
aL0L
aL0L
aL0L
aL0L
aL0L
aL0L
aL0L
aL0L
aL0L
aL0L
aL0L
aL0L
aL0L
aL0L
aL0L
aL0L
aL0L
aL0L
aL0L
aL0L
aL0L
aL0L
aL0L
aL0L
aL0L
aL0L
aL0L
aL0L
aL0L
aL0L
aL0L
aL0L
aL0L
aL0L
aL0L
aL0L
aL0L
aL0L
aL0L
aL0L
aL0L
aL0L
aL0L
aL0L
aL0L
aL0L
aL0L
aL0L
aL0L
aL0L
aL0L
aL0L
aL0L
aL0L
aL0L
aL0L
aL0L
aL0L
aL0L
atp64
Rp65
ag1
(g2
(lp66
L0L
aL0L
aL0L
aL0L
aL0L
aL0L
aL0L
aL0L
aL0L
aL0L
aL0L
aL0L
aL0L
aL0L
aL0L
aL0L
aL0L
aL0L
aL0L
aL0L
aL0L
aL0L
aL0L
aL0L
aL0L
aL0L
aL0L
aL0L
aL0L
aL0L
aL0L
aL0L
aL0L
aL0L
aL0L
aL0L
aL0L
aL0L
aL0L
aL0L
aL0L
aL0L
aL0L
aL0L
aL0L
aL0L
aL0L
aL0L
aL0L
aL0L
aL0L
aL0L
aL0L
aL0L
aL0L
aL0L
aL0L
aL0L
aL0L
aL0L
aL0L
aL0L
aL0L
aL0L
aL0L
aL0L
aL0L
aL0L
aL0L
aL0L
aL0L
aL0L
aL0L
aL0L
aL0L
aL0L
aL0L
aL0L
aL0L
aL0L
aL0L
aL0L
aL0L
aL0L
aL0L
aL0L
aL0L
aL0L
aL0L
aL0L
aL0L
aL0L
aL0L
aL0L
aL0L
atp67
Rp68
ag1
(g2
(lp69
L0L
aL0L
aL0L
aL0L
aL0L
aL0L
aL0L
aL0L
aL0L
aL0L
aL0L
aL0L
aL0L
aL0L
aL0L
aL0L
aL0L
aL0L
aL0L
aL0L
aL0L
aL0L
aL0L
aL0L
aL0L
aL0L
aL0L
aL0L
aL0L
aL0L
aL0L
aL0L
aL0L
aL0L
aL0L
aL0L
aL0L
aL0L
aL0L
aL0L
aL0L
aL0L
aL0L
aL0L
aL0L
aL0L
aL0L
aL0L
aL0L
aL0L
aL0L
aL0L
aL0L
aL0L
aL0L
aL0L
aL0L
aL0L
aL0L
aL0L
aL0L
aL0L
aL0L
aL0L
aL0L
aL0L
aL0L
aL0L
aL0L
aL0L
aL0L
aL0L
aL0L
aL0L
aL0L
aL0L
aL0L
aL0L
aL0L
aL0L
aL0L
aL0L
aL0L
aL0L
aL0L
aL0L
aL0L
aL0L
aL0L
aL0L
aL0L
aL0L
aL0L
aL0L
aL0L
atp70
Rp71
ag1
(g2
(lp72
L0L
aL0L
aL0L
aL0L
aL0L
aL0L
aL0L
aL0L
aL0L
aL0L
aL0L
aL0L
aL0L
aL0L
aL0L
aL0L
aL0L
aL0L
aL0L
aL0L
aL0L
aL0L
aL0L
aL0L
aL0L
aL0L
aL0L
aL0L
aL0L
aL0L
aL0L
aL0L
aL0L
aL0L
aL0L
aL0L
aL0L
aL0L
aL0L
aL0L
aL0L
aL0L
aL0L
aL0L
aL0L
aL0L
aL0L
aL0L
aL0L
aL0L
aL0L
aL0L
aL0L
aL0L
aL0L
aL0L
aL0L
aL0L
aL0L
aL0L
aL0L
aL0L
aL0L
aL0L
aL0L
aL0L
aL0L
aL0L
aL0L
aL0L
aL0L
aL0L
aL0L
aL0L
aL0L
aL0L
aL0L
aL0L
aL0L
aL0L
aL0L
aL0L
aL0L
aL0L
aL0L
aL0L
aL0L
aL0L
aL0L
aL0L
aL0L
aL0L
aL0L
aL0L
aL0L
atp73
Rp74
ag1
(g2
(lp75
L0L
aL0L
aL0L
aL0L
aL0L
aL0L
aL0L
aL0L
aL0L
aL0L
aL0L
aL0L
aL0L
aL0L
aL0L
aL0L
aL0L
aL0L
aL0L
aL0L
aL0L
aL0L
aL0L
aL0L
aL0L
aL0L
aL0L
aL0L
aL0L
aL0L
aL0L
aL0L
aL0L
aL0L
aL0L
aL0L
aL0L
aL0L
aL0L
aL0L
aL0L
aL0L
aL0L
aL0L
aL0L
aL0L
aL0L
aL0L
aL0L
aL0L
aL0L
aL0L
aL0L
aL0L
aL0L
aL0L
aL0L
aL0L
aL0L
aL0L
aL0L
aL0L
aL0L
aL0L
aL0L
aL0L
aL0L
aL0L
aL0L
aL0L
aL0L
aL0L
aL0L
aL0L
aL0L
aL0L
aL0L
aL0L
aL0L
aL0L
aL0L
aL0L
aL0L
aL0L
aL0L
aL0L
aL0L
aL0L
aL0L
aL0L
aL0L
aL0L
aL0L
aL0L
aL0L
atp76
Rp77
ag1
(g2
(lp78
L0L
aL0L
aL0L
aL0L
aL0L
aL0L
aL0L
aL0L
aL0L
aL0L
aL0L
aL0L
aL0L
aL0L
aL0L
aL0L
aL0L
aL0L
aL0L
aL0L
aL0L
aL0L
aL0L
aL0L
aL0L
aL0L
aL0L
aL0L
aL0L
aL0L
aL0L
aL0L
aL0L
aL0L
aL0L
aL0L
aL0L
aL0L
aL0L
aL0L
aL0L
aL0L
aL0L
aL0L
aL0L
aL0L
aL0L
aL0L
aL0L
aL0L
aL0L
aL0L
aL0L
aL0L
aL0L
aL0L
aL0L
aL0L
aL0L
aL0L
aL0L
aL0L
aL0L
aL0L
aL0L
aL0L
aL0L
aL0L
aL0L
aL0L
aL0L
aL0L
aL0L
aL0L
aL0L
aL0L
aL0L
aL0L
aL0L
aL0L
aL0L
aL0L
aL0L
aL0L
aL0L
aL0L
aL0L
aL0L
aL0L
aL0L
aL0L
aL0L
aL0L
aL0L
aL0L
atp79
Rp80
ag1
(g2
(lp81
L0L
aL0L
aL0L
aL0L
aL0L
aL0L
aL0L
aL0L
aL0L
aL0L
aL0L
aL0L
aL0L
aL0L
aL0L
aL0L
aL0L
aL0L
aL0L
aL0L
aL0L
aL0L
aL0L
aL0L
aL0L
aL0L
aL0L
aL0L
aL0L
aL0L
aL0L
aL0L
aL0L
aL0L
aL0L
aL0L
aL0L
aL0L
aL0L
aL0L
aL0L
aL0L
aL0L
aL0L
aL0L
aL0L
aL0L
aL0L
aL0L
aL0L
aL0L
aL0L
aL0L
aL0L
aL0L
aL0L
aL0L
aL0L
aL0L
aL0L
aL0L
aL0L
aL0L
aL0L
aL0L
aL0L
aL0L
aL0L
aL0L
aL0L
aL0L
aL0L
aL0L
aL0L
aL0L
aL0L
aL0L
aL0L
aL0L
aL0L
aL0L
aL0L
aL0L
aL0L
aL0L
aL0L
aL0L
aL0L
aL0L
aL0L
aL0L
aL0L
aL0L
aL0L
aL0L
atp82
Rp83
ag1
(g2
(lp84
L0L
aL0L
aL0L
aL0L
aL0L
aL0L
aL0L
aL0L
aL0L
aL0L
aL0L
aL0L
aL0L
aL0L
aL0L
aL0L
aL0L
aL0L
aL0L
aL0L
aL0L
aL0L
aL0L
aL0L
aL0L
aL0L
aL0L
aL0L
aL0L
aL0L
aL0L
aL0L
aL0L
aL0L
aL0L
aL0L
aL0L
aL0L
aL0L
aL0L
aL0L
aL0L
aL0L
aL0L
aL0L
aL0L
aL0L
aL0L
aL0L
aL0L
aL0L
aL0L
aL0L
aL0L
aL0L
aL0L
aL0L
aL0L
aL0L
aL0L
aL0L
aL0L
aL0L
aL0L
aL0L
aL0L
aL0L
aL0L
aL0L
aL0L
aL0L
aL0L
aL0L
aL0L
aL0L
aL0L
aL0L
aL0L
aL0L
aL0L
aL0L
aL0L
aL0L
aL0L
aL0L
aL0L
aL0L
aL0L
aL0L
aL0L
aL0L
aL0L
aL0L
aL0L
aL0L
atp85
Rp86
ag1
(g2
(lp87
L0L
aL0L
aL0L
aL0L
aL0L
aL0L
aL0L
aL0L
aL0L
aL0L
aL0L
aL0L
aL0L
aL0L
aL0L
aL0L
aL0L
aL0L
aL0L
aL0L
aL0L
aL0L
aL0L
aL0L
aL0L
aL0L
aL0L
aL0L
aL0L
aL0L
aL0L
aL0L
aL0L
aL0L
aL0L
aL0L
aL0L
aL0L
aL0L
aL0L
aL0L
aL0L
aL0L
aL0L
aL0L
aL0L
aL0L
aL0L
aL0L
aL0L
aL0L
aL0L
aL0L
aL0L
aL0L
aL0L
aL0L
aL0L
aL0L
aL0L
aL0L
aL0L
aL0L
aL0L
aL0L
aL0L
aL0L
aL0L
aL0L
aL0L
aL0L
aL0L
aL0L
aL0L
aL0L
aL0L
aL0L
aL0L
aL0L
aL0L
aL0L
aL0L
aL0L
aL0L
aL0L
aL0L
aL0L
aL0L
aL0L
aL0L
aL0L
aL0L
aL0L
aL0L
aL0L
atp88
Rp89
a.